
NODO_NORMAL.elf:     file format elf32-avr

Sections:
Idx Name          Size      VMA       LMA       File off  Algn
  0 .data         00000004  00800200  00003bb6  00003c4a  2**0
                  CONTENTS, ALLOC, LOAD, DATA
  1 .text         00003bb6  00000000  00000000  00000094  2**1
                  CONTENTS, ALLOC, LOAD, READONLY, CODE
  2 .bss          000003a3  00800204  00800204  00003c4e  2**0
                  ALLOC
  3 .comment      00000030  00000000  00000000  00003c4e  2**0
                  CONTENTS, READONLY
  4 .note.gnu.avr.deviceinfo 00000040  00000000  00000000  00003c80  2**2
                  CONTENTS, READONLY
  5 .debug_aranges 00000780  00000000  00000000  00003cc0  2**0
                  CONTENTS, READONLY, DEBUGGING
  6 .debug_info   0000adb3  00000000  00000000  00004440  2**0
                  CONTENTS, READONLY, DEBUGGING
  7 .debug_abbrev 000042e7  00000000  00000000  0000f1f3  2**0
                  CONTENTS, READONLY, DEBUGGING
  8 .debug_line   0000e04e  00000000  00000000  000134da  2**0
                  CONTENTS, READONLY, DEBUGGING
  9 .debug_frame  00001908  00000000  00000000  00021528  2**2
                  CONTENTS, READONLY, DEBUGGING
 10 .debug_str    0001f9b8  00000000  00000000  00022e30  2**0
                  CONTENTS, READONLY, DEBUGGING
 11 .debug_loc    00006a22  00000000  00000000  000427e8  2**0
                  CONTENTS, READONLY, DEBUGGING
 12 .debug_ranges 000006e8  00000000  00000000  0004920a  2**0
                  CONTENTS, READONLY, DEBUGGING
 13 .debug_macro  0000b729  00000000  00000000  000498f2  2**0
                  CONTENTS, READONLY, DEBUGGING

Disassembly of section .text:

00000000 <__vectors>:
       0:	f9 c0       	rjmp	.+498    	; 0x1f4 <__ctors_end>
       2:	00 00       	nop
       4:	18 c1       	rjmp	.+560    	; 0x236 <__bad_interrupt>
       6:	00 00       	nop
       8:	16 c1       	rjmp	.+556    	; 0x236 <__bad_interrupt>
       a:	00 00       	nop
       c:	14 c1       	rjmp	.+552    	; 0x236 <__bad_interrupt>
       e:	00 00       	nop
      10:	12 c1       	rjmp	.+548    	; 0x236 <__bad_interrupt>
      12:	00 00       	nop
      14:	10 c1       	rjmp	.+544    	; 0x236 <__bad_interrupt>
      16:	00 00       	nop
      18:	0e c1       	rjmp	.+540    	; 0x236 <__bad_interrupt>
      1a:	00 00       	nop
      1c:	0c c1       	rjmp	.+536    	; 0x236 <__bad_interrupt>
      1e:	00 00       	nop
      20:	0a c1       	rjmp	.+532    	; 0x236 <__bad_interrupt>
      22:	00 00       	nop
      24:	08 c1       	rjmp	.+528    	; 0x236 <__bad_interrupt>
      26:	00 00       	nop
      28:	06 c1       	rjmp	.+524    	; 0x236 <__bad_interrupt>
      2a:	00 00       	nop
      2c:	04 c1       	rjmp	.+520    	; 0x236 <__bad_interrupt>
      2e:	00 00       	nop
      30:	02 c1       	rjmp	.+516    	; 0x236 <__bad_interrupt>
      32:	00 00       	nop
      34:	00 c1       	rjmp	.+512    	; 0x236 <__bad_interrupt>
      36:	00 00       	nop
      38:	fe c0       	rjmp	.+508    	; 0x236 <__bad_interrupt>
      3a:	00 00       	nop
      3c:	fc c0       	rjmp	.+504    	; 0x236 <__bad_interrupt>
      3e:	00 00       	nop
      40:	fa c0       	rjmp	.+500    	; 0x236 <__bad_interrupt>
      42:	00 00       	nop
      44:	0c 94 89 15 	jmp	0x2b12	; 0x2b12 <__vector_17>
      48:	0c 94 b6 15 	jmp	0x2b6c	; 0x2b6c <__vector_18>
      4c:	0c 94 e3 15 	jmp	0x2bc6	; 0x2bc6 <__vector_19>
      50:	0c 94 5c 15 	jmp	0x2ab8	; 0x2ab8 <__vector_20>
      54:	f0 c0       	rjmp	.+480    	; 0x236 <__bad_interrupt>
      56:	00 00       	nop
      58:	ee c0       	rjmp	.+476    	; 0x236 <__bad_interrupt>
      5a:	00 00       	nop
      5c:	ec c0       	rjmp	.+472    	; 0x236 <__bad_interrupt>
      5e:	00 00       	nop
      60:	ea c0       	rjmp	.+468    	; 0x236 <__bad_interrupt>
      62:	00 00       	nop
      64:	e8 c0       	rjmp	.+464    	; 0x236 <__bad_interrupt>
      66:	00 00       	nop
      68:	e6 c0       	rjmp	.+460    	; 0x236 <__bad_interrupt>
      6a:	00 00       	nop
      6c:	e4 c0       	rjmp	.+456    	; 0x236 <__bad_interrupt>
      6e:	00 00       	nop
      70:	e2 c0       	rjmp	.+452    	; 0x236 <__bad_interrupt>
      72:	00 00       	nop
      74:	e0 c0       	rjmp	.+448    	; 0x236 <__bad_interrupt>
      76:	00 00       	nop
      78:	de c0       	rjmp	.+444    	; 0x236 <__bad_interrupt>
      7a:	00 00       	nop
      7c:	dc c0       	rjmp	.+440    	; 0x236 <__bad_interrupt>
      7e:	00 00       	nop
      80:	0c 94 3d 16 	jmp	0x2c7a	; 0x2c7a <__vector_32>
      84:	0c 94 6a 16 	jmp	0x2cd4	; 0x2cd4 <__vector_33>
      88:	0c 94 97 16 	jmp	0x2d2e	; 0x2d2e <__vector_34>
      8c:	0c 94 10 16 	jmp	0x2c20	; 0x2c20 <__vector_35>
      90:	d2 c0       	rjmp	.+420    	; 0x236 <__bad_interrupt>
      92:	00 00       	nop
      94:	d0 c0       	rjmp	.+416    	; 0x236 <__bad_interrupt>
      96:	00 00       	nop
      98:	ce c0       	rjmp	.+412    	; 0x236 <__bad_interrupt>
      9a:	00 00       	nop
      9c:	cc c0       	rjmp	.+408    	; 0x236 <__bad_interrupt>
      9e:	00 00       	nop
      a0:	ca c0       	rjmp	.+404    	; 0x236 <__bad_interrupt>
      a2:	00 00       	nop
      a4:	c8 c0       	rjmp	.+400    	; 0x236 <__bad_interrupt>
      a6:	00 00       	nop
      a8:	0c 94 f1 16 	jmp	0x2de2	; 0x2de2 <__vector_42>
      ac:	0c 94 1e 17 	jmp	0x2e3c	; 0x2e3c <__vector_43>
      b0:	0c 94 4b 17 	jmp	0x2e96	; 0x2e96 <__vector_44>
      b4:	0c 94 c4 16 	jmp	0x2d88	; 0x2d88 <__vector_45>
      b8:	be c0       	rjmp	.+380    	; 0x236 <__bad_interrupt>
      ba:	00 00       	nop
      bc:	0c 94 a5 17 	jmp	0x2f4a	; 0x2f4a <__vector_47>
      c0:	0c 94 d2 17 	jmp	0x2fa4	; 0x2fa4 <__vector_48>
      c4:	0c 94 ff 17 	jmp	0x2ffe	; 0x2ffe <__vector_49>
      c8:	0c 94 78 17 	jmp	0x2ef0	; 0x2ef0 <__vector_50>
      cc:	b4 c0       	rjmp	.+360    	; 0x236 <__bad_interrupt>
      ce:	00 00       	nop
      d0:	b2 c0       	rjmp	.+356    	; 0x236 <__bad_interrupt>
      d2:	00 00       	nop
      d4:	b0 c0       	rjmp	.+352    	; 0x236 <__bad_interrupt>
      d6:	00 00       	nop
      d8:	ae c0       	rjmp	.+348    	; 0x236 <__bad_interrupt>
      da:	00 00       	nop
      dc:	ac c0       	rjmp	.+344    	; 0x236 <__bad_interrupt>
      de:	00 00       	nop
      e0:	aa c0       	rjmp	.+340    	; 0x236 <__bad_interrupt>
      e2:	00 00       	nop
      e4:	0c 94 6b 0f 	jmp	0x1ed6	; 0x1ed6 <__vector_57>
      e8:	0c 94 75 0f 	jmp	0x1eea	; 0x1eea <__vector_58>
      ec:	0c 94 61 0f 	jmp	0x1ec2	; 0x1ec2 <__vector_59>
      f0:	0c 94 e0 0e 	jmp	0x1dc0	; 0x1dc0 <__vector_60>
      f4:	0c 94 0b 0f 	jmp	0x1e16	; 0x1e16 <__vector_61>
      f8:	0c 94 7f 0f 	jmp	0x1efe	; 0x1efe <__vector_62>
      fc:	0c 94 b5 0e 	jmp	0x1d6a	; 0x1d6a <__vector_63>
     100:	0c 94 36 0f 	jmp	0x1e6c	; 0x1e6c <__vector_64>
     104:	98 c0       	rjmp	.+304    	; 0x236 <__bad_interrupt>
     106:	00 00       	nop
     108:	96 c0       	rjmp	.+300    	; 0x236 <__bad_interrupt>
     10a:	00 00       	nop
     10c:	94 c0       	rjmp	.+296    	; 0x236 <__bad_interrupt>
     10e:	00 00       	nop
     110:	92 c0       	rjmp	.+292    	; 0x236 <__bad_interrupt>
     112:	00 00       	nop
     114:	90 c0       	rjmp	.+288    	; 0x236 <__bad_interrupt>
     116:	00 00       	nop
     118:	0c 94 93 0f 	jmp	0x1f26	; 0x1f26 <__vector_70>
     11c:	0c 94 89 0f 	jmp	0x1f12	; 0x1f12 <__vector_71>
     120:	0c 94 9d 0f 	jmp	0x1f3a	; 0x1f3a <__vector_72>
     124:	0c 94 a7 0f 	jmp	0x1f4e	; 0x1f4e <__vector_73>
     128:	0c 94 b1 0f 	jmp	0x1f62	; 0x1f62 <__vector_74>
     12c:	0c 94 bb 0f 	jmp	0x1f76	; 0x1f76 <__vector_75>
     130:	0c 94 c5 0f 	jmp	0x1f8a	; 0x1f8a <__vector_76>
     134:	38 0c       	add	r3, r8
     136:	5f 0c       	add	r5, r15
     138:	53 0c       	add	r5, r3
     13a:	6c 0c       	add	r6, r12
     13c:	53 0c       	add	r5, r3
     13e:	2b 0c       	add	r2, r11
     140:	45 0c       	add	r4, r5
     142:	53 0c       	add	r5, r3
     144:	53 0c       	add	r5, r3
     146:	53 0c       	add	r5, r3
     148:	53 0c       	add	r5, r3
     14a:	53 0c       	add	r5, r3
     14c:	ff 0b       	sbc	r31, r31
     14e:	53 0c       	add	r5, r3
     150:	53 0c       	add	r5, r3
     152:	53 0c       	add	r5, r3
     154:	53 0c       	add	r5, r3
     156:	53 0c       	add	r5, r3
     158:	53 0c       	add	r5, r3
     15a:	8b 0c       	add	r8, r11
     15c:	53 0c       	add	r5, r3
     15e:	53 0c       	add	r5, r3
     160:	c4 0c       	add	r12, r4
     162:	07 63       	ori	r16, 0x37	; 55
     164:	42 36       	cpi	r20, 0x62	; 98
     166:	b7 9b       	sbis	0x16, 7	; 22
     168:	d8 a7       	std	Y+40, r29	; 0x28
     16a:	1a 39       	cpi	r17, 0x9A	; 154
     16c:	68 56       	subi	r22, 0x68	; 104
     16e:	18 ae       	std	Y+56, r1	; 0x38
     170:	ba ab       	std	Y+50, r27	; 0x32
     172:	55 8c       	ldd	r5, Z+29	; 0x1d
     174:	1d 3c       	cpi	r17, 0xCD	; 205
     176:	b7 cc       	rjmp	.-1682   	; 0xfffffae6 <__eeprom_end+0xff7efae6>
     178:	57 63       	ori	r21, 0x37	; 55
     17a:	bd 6d       	ori	r27, 0xDD	; 221
     17c:	ed fd       	.word	0xfded	; ????
     17e:	75 3e       	cpi	r23, 0xE5	; 229
     180:	f6 17       	cp	r31, r22
     182:	72 31       	cpi	r23, 0x12	; 18
     184:	bf 00       	.word	0x00bf	; ????
     186:	00 00       	nop
     188:	80 3f       	cpi	r24, 0xF0	; 240
     18a:	08 00       	.word	0x0008	; ????
     18c:	00 00       	nop
     18e:	be 92       	st	-X, r11
     190:	24 49       	sbci	r18, 0x94	; 148
     192:	12 3e       	cpi	r17, 0xE2	; 226
     194:	ab aa       	std	Y+51, r10	; 0x33
     196:	aa 2a       	or	r10, r26
     198:	be cd       	rjmp	.-1156   	; 0xfffffd16 <__eeprom_end+0xff7efd16>
     19a:	cc cc       	rjmp	.-1640   	; 0xfffffb34 <__eeprom_end+0xff7efb34>
     19c:	4c 3e       	cpi	r20, 0xEC	; 236
     19e:	00 00       	nop
     1a0:	00 80       	ld	r0, Z
     1a2:	be ab       	std	Y+54, r27	; 0x36
     1a4:	aa aa       	std	Y+50, r10	; 0x32
     1a6:	aa 3e       	cpi	r26, 0xEA	; 234
     1a8:	00 00       	nop
     1aa:	00 00       	nop
     1ac:	bf 00       	.word	0x00bf	; ????
     1ae:	00 00       	nop
     1b0:	80 3f       	cpi	r24, 0xF0	; 240
     1b2:	00 00       	nop
     1b4:	00 00       	nop
     1b6:	00 08       	sbc	r0, r0
     1b8:	41 78       	andi	r20, 0x81	; 129
     1ba:	d3 bb       	out	0x13, r29	; 19
     1bc:	43 87       	std	Z+11, r20	; 0x0b
     1be:	d1 13       	cpse	r29, r17
     1c0:	3d 19       	sub	r19, r13
     1c2:	0e 3c       	cpi	r16, 0xCE	; 206
     1c4:	c3 bd       	out	0x23, r28	; 35
     1c6:	42 82       	std	Z+2, r4	; 0x02
     1c8:	ad 2b       	or	r26, r29
     1ca:	3e 68       	ori	r19, 0x8E	; 142
     1cc:	ec 82       	std	Y+4, r14	; 0x04
     1ce:	76 be       	out	0x36, r7	; 54
     1d0:	d9 8f       	std	Y+25, r29	; 0x19
     1d2:	e1 a9       	ldd	r30, Z+49	; 0x31
     1d4:	3e 4c       	sbci	r19, 0xCE	; 206
     1d6:	80 ef       	ldi	r24, 0xF0	; 240
     1d8:	ff be       	out	0x3f, r15	; 63
     1da:	01 c4       	rjmp	.+2050   	; 0x9de <usr_wireless_app_task+0x21c>
     1dc:	ff 7f       	andi	r31, 0xFF	; 255
     1de:	3f 00       	.word	0x003f	; ????
     1e0:	00 00       	nop
	...

000001e4 <__trampolines_end>:
     1e4:	04 03       	mulsu	r16, r20
     1e6:	03 02       	muls	r16, r19
     1e8:	02 01       	movw	r0, r4
     1ea:	00 ff       	sbrs	r16, 0
     1ec:	fe fd       	.word	0xfdfe	; ????
     1ee:	fc fb       	.word	0xfbfc	; ????
     1f0:	f9 f7       	brne	.-2      	; 0x1f0 <__trampolines_end+0xc>
     1f2:	f4 ef       	ldi	r31, 0xF4	; 244

000001f4 <__ctors_end>:
     1f4:	11 24       	eor	r1, r1
     1f6:	1f be       	out	0x3f, r1	; 63
     1f8:	cf ef       	ldi	r28, 0xFF	; 255
     1fa:	d1 e8       	ldi	r29, 0x81	; 129
     1fc:	de bf       	out	0x3e, r29	; 62
     1fe:	cd bf       	out	0x3d, r28	; 61
     200:	00 e0       	ldi	r16, 0x00	; 0
     202:	0c bf       	out	0x3c, r16	; 60

00000204 <__do_copy_data>:
     204:	12 e0       	ldi	r17, 0x02	; 2
     206:	a0 e0       	ldi	r26, 0x00	; 0
     208:	b2 e0       	ldi	r27, 0x02	; 2
     20a:	e6 eb       	ldi	r30, 0xB6	; 182
     20c:	fb e3       	ldi	r31, 0x3B	; 59
     20e:	00 e0       	ldi	r16, 0x00	; 0
     210:	0b bf       	out	0x3b, r16	; 59
     212:	02 c0       	rjmp	.+4      	; 0x218 <__do_copy_data+0x14>
     214:	07 90       	elpm	r0, Z+
     216:	0d 92       	st	X+, r0
     218:	a4 30       	cpi	r26, 0x04	; 4
     21a:	b1 07       	cpc	r27, r17
     21c:	d9 f7       	brne	.-10     	; 0x214 <__do_copy_data+0x10>

0000021e <__do_clear_bss>:
     21e:	25 e0       	ldi	r18, 0x05	; 5
     220:	a4 e0       	ldi	r26, 0x04	; 4
     222:	b2 e0       	ldi	r27, 0x02	; 2
     224:	01 c0       	rjmp	.+2      	; 0x228 <.do_clear_bss_start>

00000226 <.do_clear_bss_loop>:
     226:	1d 92       	st	X+, r1

00000228 <.do_clear_bss_start>:
     228:	a7 3a       	cpi	r26, 0xA7	; 167
     22a:	b2 07       	cpc	r27, r18
     22c:	e1 f7       	brne	.-8      	; 0x226 <.do_clear_bss_loop>
     22e:	0e 94 5a 19 	call	0x32b4	; 0x32b4 <main>
     232:	0c 94 d9 1d 	jmp	0x3bb2	; 0x3bb2 <_exit>

00000236 <__bad_interrupt>:
     236:	e4 ce       	rjmp	.-568    	; 0x0 <__vectors>

00000238 <common_tc_read_count>:
     238:	0e 94 04 15 	call	0x2a08	; 0x2a08 <tmr_read_count>
     23c:	20 91 08 02 	lds	r18, 0x0208	; 0x800208 <timer_mul_var>
     240:	22 23       	and	r18, r18
     242:	d9 f0       	breq	.+54     	; 0x27a <common_tc_read_count+0x42>
     244:	40 91 a6 05 	lds	r20, 0x05A6	; 0x8005a6 <timer_multiplier>
     248:	30 e0       	ldi	r19, 0x00	; 0
     24a:	20 91 08 02 	lds	r18, 0x0208	; 0x800208 <timer_mul_var>
     24e:	64 2f       	mov	r22, r20
     250:	73 2f       	mov	r23, r19
     252:	0e 94 d7 1c 	call	0x39ae	; 0x39ae <__udivmodhi4>
     256:	fb 01       	movw	r30, r22
     258:	8f ef       	ldi	r24, 0xFF	; 255
     25a:	9f ef       	ldi	r25, 0xFF	; 255
     25c:	64 2f       	mov	r22, r20
     25e:	73 2f       	mov	r23, r19
     260:	0e 94 d7 1c 	call	0x39ae	; 0x39ae <__udivmodhi4>
     264:	30 e0       	ldi	r19, 0x00	; 0
     266:	62 9f       	mul	r22, r18
     268:	c0 01       	movw	r24, r0
     26a:	63 9f       	mul	r22, r19
     26c:	90 0d       	add	r25, r0
     26e:	72 9f       	mul	r23, r18
     270:	90 0d       	add	r25, r0
     272:	11 24       	eor	r1, r1
     274:	8e 0f       	add	r24, r30
     276:	9f 1f       	adc	r25, r31
     278:	08 95       	ret
     27a:	60 91 a6 05 	lds	r22, 0x05A6	; 0x8005a6 <timer_multiplier>
     27e:	70 e0       	ldi	r23, 0x00	; 0
     280:	0e 94 d7 1c 	call	0x39ae	; 0x39ae <__udivmodhi4>
     284:	cb 01       	movw	r24, r22
     286:	08 95       	ret

00000288 <common_tc_compare_stop>:
     288:	0e 94 09 15 	call	0x2a12	; 0x2a12 <tmr_disable_cc_interrupt>
     28c:	0e 94 2d 15 	call	0x2a5a	; 0x2a5a <save_cpu_interrupt>
     290:	10 92 04 02 	sts	0x0204, r1	; 0x800204 <__data_end>
     294:	10 92 05 02 	sts	0x0205, r1	; 0x800205 <__data_end+0x1>
     298:	10 92 06 02 	sts	0x0206, r1	; 0x800206 <__data_end+0x2>
     29c:	10 92 07 02 	sts	0x0207, r1	; 0x800207 <__data_end+0x3>
     2a0:	10 92 0a 02 	sts	0x020A, r1	; 0x80020a <compare_value+0x1>
     2a4:	10 92 09 02 	sts	0x0209, r1	; 0x800209 <compare_value>
     2a8:	0c 94 3a 15 	jmp	0x2a74	; 0x2a74 <restore_cpu_interrupt>

000002ac <common_tc_overflow_stop>:
     2ac:	0e 94 17 15 	call	0x2a2e	; 0x2a2e <tmr_disable_ovf_interrupt>
     2b0:	10 92 08 02 	sts	0x0208, r1	; 0x800208 <timer_mul_var>
     2b4:	08 95       	ret

000002b6 <common_tc_stop>:
     2b6:	e8 df       	rcall	.-48     	; 0x288 <common_tc_compare_stop>
     2b8:	f9 df       	rcall	.-14     	; 0x2ac <common_tc_overflow_stop>
     2ba:	0c 94 1e 15 	jmp	0x2a3c	; 0x2a3c <tmr_stop>

000002be <common_tc_delay>:
     2be:	0f 93       	push	r16
     2c0:	1f 93       	push	r17
     2c2:	cf 93       	push	r28
     2c4:	df 93       	push	r29
     2c6:	ec 01       	movw	r28, r24
     2c8:	0e 94 04 15 	call	0x2a08	; 0x2a08 <tmr_read_count>
     2cc:	8c 01       	movw	r16, r24
     2ce:	be 01       	movw	r22, r28
     2d0:	80 e0       	ldi	r24, 0x00	; 0
     2d2:	90 e0       	ldi	r25, 0x00	; 0
     2d4:	20 91 a6 05 	lds	r18, 0x05A6	; 0x8005a6 <timer_multiplier>
     2d8:	30 e0       	ldi	r19, 0x00	; 0
     2da:	40 e0       	ldi	r20, 0x00	; 0
     2dc:	50 e0       	ldi	r21, 0x00	; 0
     2de:	0e 94 c8 1c 	call	0x3990	; 0x3990 <__mulsi3>
     2e2:	dc 01       	movw	r26, r24
     2e4:	cb 01       	movw	r24, r22
     2e6:	a8 01       	movw	r20, r16
     2e8:	60 e0       	ldi	r22, 0x00	; 0
     2ea:	70 e0       	ldi	r23, 0x00	; 0
     2ec:	48 0f       	add	r20, r24
     2ee:	59 1f       	adc	r21, r25
     2f0:	6a 1f       	adc	r22, r26
     2f2:	7b 1f       	adc	r23, r27
     2f4:	40 93 04 02 	sts	0x0204, r20	; 0x800204 <__data_end>
     2f8:	50 93 05 02 	sts	0x0205, r21	; 0x800205 <__data_end+0x1>
     2fc:	60 93 06 02 	sts	0x0206, r22	; 0x800206 <__data_end+0x2>
     300:	70 93 07 02 	sts	0x0207, r23	; 0x800207 <__data_end+0x3>
     304:	40 91 04 02 	lds	r20, 0x0204	; 0x800204 <__data_end>
     308:	50 91 05 02 	lds	r21, 0x0205	; 0x800205 <__data_end+0x1>
     30c:	60 91 06 02 	lds	r22, 0x0206	; 0x800206 <__data_end+0x2>
     310:	70 91 07 02 	lds	r23, 0x0207	; 0x800207 <__data_end+0x3>
     314:	ab 01       	movw	r20, r22
     316:	66 27       	eor	r22, r22
     318:	77 27       	eor	r23, r23
     31a:	40 93 04 02 	sts	0x0204, r20	; 0x800204 <__data_end>
     31e:	50 93 05 02 	sts	0x0205, r21	; 0x800205 <__data_end+0x1>
     322:	60 93 06 02 	sts	0x0206, r22	; 0x800206 <__data_end+0x2>
     326:	70 93 07 02 	sts	0x0207, r23	; 0x800207 <__data_end+0x3>
     32a:	40 91 04 02 	lds	r20, 0x0204	; 0x800204 <__data_end>
     32e:	50 91 05 02 	lds	r21, 0x0205	; 0x800205 <__data_end+0x1>
     332:	60 91 06 02 	lds	r22, 0x0206	; 0x800206 <__data_end+0x2>
     336:	70 91 07 02 	lds	r23, 0x0207	; 0x800207 <__data_end+0x3>
     33a:	41 15       	cp	r20, r1
     33c:	51 05       	cpc	r21, r1
     33e:	61 05       	cpc	r22, r1
     340:	71 05       	cpc	r23, r1
     342:	91 f0       	breq	.+36     	; 0x368 <common_tc_delay+0xaa>
     344:	40 91 04 02 	lds	r20, 0x0204	; 0x800204 <__data_end>
     348:	50 91 05 02 	lds	r21, 0x0205	; 0x800205 <__data_end+0x1>
     34c:	60 91 06 02 	lds	r22, 0x0206	; 0x800206 <__data_end+0x2>
     350:	70 91 07 02 	lds	r23, 0x0207	; 0x800207 <__data_end+0x3>
     354:	01 96       	adiw	r24, 0x01	; 1
     356:	08 0f       	add	r16, r24
     358:	19 1f       	adc	r17, r25
     35a:	10 93 0a 02 	sts	0x020A, r17	; 0x80020a <compare_value+0x1>
     35e:	00 93 09 02 	sts	0x0209, r16	; 0x800209 <compare_value>
     362:	0e 94 09 15 	call	0x2a12	; 0x2a12 <tmr_disable_cc_interrupt>
     366:	08 c0       	rjmp	.+16     	; 0x378 <common_tc_delay+0xba>
     368:	08 0f       	add	r16, r24
     36a:	19 1f       	adc	r17, r25
     36c:	10 93 0a 02 	sts	0x020A, r17	; 0x80020a <compare_value+0x1>
     370:	00 93 09 02 	sts	0x0209, r16	; 0x800209 <compare_value>
     374:	0e 94 10 15 	call	0x2a20	; 0x2a20 <tmr_enable_cc_interrupt>
     378:	80 91 09 02 	lds	r24, 0x0209	; 0x800209 <compare_value>
     37c:	90 91 0a 02 	lds	r25, 0x020A	; 0x80020a <compare_value+0x1>
     380:	84 36       	cpi	r24, 0x64	; 100
     382:	91 05       	cpc	r25, r1
     384:	30 f4       	brcc	.+12     	; 0x392 <common_tc_delay+0xd4>
     386:	8c 59       	subi	r24, 0x9C	; 156
     388:	9f 4f       	sbci	r25, 0xFF	; 255
     38a:	90 93 0a 02 	sts	0x020A, r25	; 0x80020a <compare_value+0x1>
     38e:	80 93 09 02 	sts	0x0209, r24	; 0x800209 <compare_value>
     392:	80 91 09 02 	lds	r24, 0x0209	; 0x800209 <compare_value>
     396:	90 91 0a 02 	lds	r25, 0x020A	; 0x80020a <compare_value+0x1>
     39a:	0e 94 22 15 	call	0x2a44	; 0x2a44 <tmr_write_cmpreg>
     39e:	df 91       	pop	r29
     3a0:	cf 91       	pop	r28
     3a2:	1f 91       	pop	r17
     3a4:	0f 91       	pop	r16
     3a6:	08 95       	ret

000003a8 <common_tc_init>:
     3a8:	10 92 08 02 	sts	0x0208, r1	; 0x800208 <timer_mul_var>
     3ac:	0e 94 3c 15 	call	0x2a78	; 0x2a78 <tmr_init>
     3b0:	80 93 a6 05 	sts	0x05A6, r24	; 0x8005a6 <timer_multiplier>
     3b4:	08 95       	ret

000003b6 <tmr_ovf_callback>:
     3b6:	80 91 04 02 	lds	r24, 0x0204	; 0x800204 <__data_end>
     3ba:	90 91 05 02 	lds	r25, 0x0205	; 0x800205 <__data_end+0x1>
     3be:	a0 91 06 02 	lds	r26, 0x0206	; 0x800206 <__data_end+0x2>
     3c2:	b0 91 07 02 	lds	r27, 0x0207	; 0x800207 <__data_end+0x3>
     3c6:	00 97       	sbiw	r24, 0x00	; 0
     3c8:	a1 05       	cpc	r26, r1
     3ca:	b1 05       	cpc	r27, r1
     3cc:	c9 f0       	breq	.+50     	; 0x400 <__LOCK_REGION_LENGTH__>
     3ce:	80 91 04 02 	lds	r24, 0x0204	; 0x800204 <__data_end>
     3d2:	90 91 05 02 	lds	r25, 0x0205	; 0x800205 <__data_end+0x1>
     3d6:	a0 91 06 02 	lds	r26, 0x0206	; 0x800206 <__data_end+0x2>
     3da:	b0 91 07 02 	lds	r27, 0x0207	; 0x800207 <__data_end+0x3>
     3de:	01 97       	sbiw	r24, 0x01	; 1
     3e0:	a1 09       	sbc	r26, r1
     3e2:	b1 09       	sbc	r27, r1
     3e4:	80 93 04 02 	sts	0x0204, r24	; 0x800204 <__data_end>
     3e8:	90 93 05 02 	sts	0x0205, r25	; 0x800205 <__data_end+0x1>
     3ec:	a0 93 06 02 	sts	0x0206, r26	; 0x800206 <__data_end+0x2>
     3f0:	b0 93 07 02 	sts	0x0207, r27	; 0x800207 <__data_end+0x3>
     3f4:	00 97       	sbiw	r24, 0x00	; 0
     3f6:	a1 05       	cpc	r26, r1
     3f8:	b1 05       	cpc	r27, r1
     3fa:	11 f4       	brne	.+4      	; 0x400 <__LOCK_REGION_LENGTH__>
     3fc:	0e 94 10 15 	call	0x2a20	; 0x2a20 <tmr_enable_cc_interrupt>
     400:	80 91 08 02 	lds	r24, 0x0208	; 0x800208 <timer_mul_var>
     404:	8f 5f       	subi	r24, 0xFF	; 255
     406:	80 93 08 02 	sts	0x0208, r24	; 0x800208 <timer_mul_var>
     40a:	90 91 a6 05 	lds	r25, 0x05A6	; 0x8005a6 <timer_multiplier>
     40e:	89 17       	cp	r24, r25
     410:	48 f0       	brcs	.+18     	; 0x424 <__LOCK_REGION_LENGTH__+0x24>
     412:	10 92 08 02 	sts	0x0208, r1	; 0x800208 <timer_mul_var>
     416:	e0 91 0b 02 	lds	r30, 0x020B	; 0x80020b <common_tc_ovf_callback>
     41a:	f0 91 0c 02 	lds	r31, 0x020C	; 0x80020c <common_tc_ovf_callback+0x1>
     41e:	30 97       	sbiw	r30, 0x00	; 0
     420:	09 f0       	breq	.+2      	; 0x424 <__LOCK_REGION_LENGTH__+0x24>
     422:	19 95       	eicall
     424:	08 95       	ret

00000426 <tmr_cca_callback>:
     426:	0e 94 09 15 	call	0x2a12	; 0x2a12 <tmr_disable_cc_interrupt>
     42a:	e0 91 0d 02 	lds	r30, 0x020D	; 0x80020d <common_tc_cca_callback>
     42e:	f0 91 0e 02 	lds	r31, 0x020E	; 0x80020e <common_tc_cca_callback+0x1>
     432:	30 97       	sbiw	r30, 0x00	; 0
     434:	09 f0       	breq	.+2      	; 0x438 <tmr_cca_callback+0x12>
     436:	19 95       	eicall
     438:	08 95       	ret

0000043a <set_common_tc_overflow_callback>:
     43a:	90 93 0c 02 	sts	0x020C, r25	; 0x80020c <common_tc_ovf_callback+0x1>
     43e:	80 93 0b 02 	sts	0x020B, r24	; 0x80020b <common_tc_ovf_callback>
     442:	08 95       	ret

00000444 <set_common_tc_expiry_callback>:
     444:	90 93 0e 02 	sts	0x020E, r25	; 0x80020e <common_tc_cca_callback+0x1>
     448:	80 93 0d 02 	sts	0x020D, r24	; 0x80020d <common_tc_cca_callback>
     44c:	08 95       	ret

0000044e <usr_app_timer_cb>:
     44e:	81 e0       	ldi	r24, 0x01	; 1
     450:	90 e0       	ldi	r25, 0x00	; 0
     452:	90 93 24 02 	sts	0x0224, r25	; 0x800224 <TimerFinaliza+0x1>
     456:	80 93 23 02 	sts	0x0223, r24	; 0x800223 <TimerFinaliza>
     45a:	08 95       	ret

0000045c <__portable_avr_delay_cycles>:
 *
 * @{
 */
__always_optimize
static inline void __portable_avr_delay_cycles(unsigned long n)
{
     45c:	04 c0       	rjmp	.+8      	; 0x466 <__portable_avr_delay_cycles+0xa>
	while (n) {
		barrier();
		n--;
     45e:	61 50       	subi	r22, 0x01	; 1
     460:	71 09       	sbc	r23, r1
     462:	81 09       	sbc	r24, r1
     464:	91 09       	sbc	r25, r1
 * @{
 */
__always_optimize
static inline void __portable_avr_delay_cycles(unsigned long n)
{
	while (n) {
     466:	61 15       	cp	r22, r1
     468:	71 05       	cpc	r23, r1
     46a:	81 05       	cpc	r24, r1
     46c:	91 05       	cpc	r25, r1
     46e:	b9 f7       	brne	.-18     	; 0x45e <__portable_avr_delay_cycles+0x2>
     470:	08 95       	ret

00000472 <usr_frame_received_cb>:

	delay_ms(10);
}

void usr_frame_received_cb(frame_info_t *frame)
{		
     472:	cf 93       	push	r28
     474:	df 93       	push	r29
     476:	ec 01       	movw	r28, r24
		memset(&trama_recibida,0,sizeof(trama_recibida));// Elimina informacion previa de la estructura de recepcion 
     478:	85 e9       	ldi	r24, 0x95	; 149
     47a:	94 e0       	ldi	r25, 0x04	; 4
     47c:	21 e7       	ldi	r18, 0x71	; 113
     47e:	fc 01       	movw	r30, r24
     480:	11 92       	st	Z+, r1
     482:	2a 95       	dec	r18
     484:	e9 f7       	brne	.-6      	; 0x480 <usr_frame_received_cb+0xe>
		memcpy(&trama_recibida,frame->mpdu,sizeof(trama_recibida));// copia la informacion de la memoria fuente(buffer) al detino
     486:	ef 81       	ldd	r30, Y+7	; 0x07
     488:	f8 85       	ldd	r31, Y+8	; 0x08
     48a:	21 e7       	ldi	r18, 0x71	; 113
     48c:	dc 01       	movw	r26, r24
     48e:	01 90       	ld	r0, Z+
     490:	0d 92       	st	X+, r0
     492:	2a 95       	dec	r18
     494:	e1 f7       	brne	.-8      	; 0x48e <usr_frame_received_cb+0x1c>
		//bmm_buffer_free(frame->buffer_header);//Elimina los datos del buffer, evita superpocicion.
			
		if (trama_recibida.d_dstn==SRC_ADDR_) // Si se cumple esta condicion la trama es de subida
     496:	fc 01       	movw	r30, r24
     498:	86 81       	ldd	r24, Z+6	; 0x06
     49a:	97 81       	ldd	r25, Z+7	; 0x07
     49c:	20 91 1b 05 	lds	r18, 0x051B	; 0x80051b <SRC_ADDR_>
     4a0:	30 91 1c 05 	lds	r19, 0x051C	; 0x80051c <SRC_ADDR_+0x1>
     4a4:	82 17       	cp	r24, r18
     4a6:	93 07       	cpc	r25, r19
     4a8:	39 f5       	brne	.+78     	; 0x4f8 <usr_frame_received_cb+0x86>
		{
			// Obtencion de la longitud de la trama 
			//int longitudTramaRX=0;
			longitudTramaRX=0;  
     4aa:	10 92 1c 02 	sts	0x021C, r1	; 0x80021c <longitudTramaRX+0x1>
     4ae:	10 92 1b 02 	sts	0x021B, r1	; 0x80021b <longitudTramaRX>
     4b2:	ef e9       	ldi	r30, 0x9F	; 159
     4b4:	f4 e0       	ldi	r31, 0x04	; 4
     4b6:	21 ed       	ldi	r18, 0xD1	; 209
     4b8:	34 e0       	ldi	r19, 0x04	; 4
     4ba:	90 e0       	ldi	r25, 0x00	; 0
     4bc:	60 e0       	ldi	r22, 0x00	; 0
     4be:	70 e0       	ldi	r23, 0x00	; 0
     4c0:	46 ef       	ldi	r20, 0xF6	; 246
     4c2:	5f ef       	ldi	r21, 0xFF	; 255
     4c4:	45 59       	subi	r20, 0x95	; 149
     4c6:	54 40       	sbci	r21, 0x04	; 4
			for (int l = 0; l < 50; l++)
			{
				uint8_t ultimoCH=trama_recibida.CargaUtil_802_15_4[l];
				if (ultimoCH==0xFE)
     4c8:	a1 e0       	ldi	r26, 0x01	; 1
			// Obtencion de la longitud de la trama 
			//int longitudTramaRX=0;
			longitudTramaRX=0;  
			for (int l = 0; l < 50; l++)
			{
				uint8_t ultimoCH=trama_recibida.CargaUtil_802_15_4[l];
     4ca:	81 91       	ld	r24, Z+
				if (ultimoCH==0xFE)
     4cc:	8e 3f       	cpi	r24, 0xFE	; 254
     4ce:	21 f4       	brne	.+8      	; 0x4d8 <usr_frame_received_cb+0x66>
     4d0:	ba 01       	movw	r22, r20
     4d2:	6e 0f       	add	r22, r30
     4d4:	7f 1f       	adc	r23, r31
     4d6:	9a 2f       	mov	r25, r26
		if (trama_recibida.d_dstn==SRC_ADDR_) // Si se cumple esta condicion la trama es de subida
		{
			// Obtencion de la longitud de la trama 
			//int longitudTramaRX=0;
			longitudTramaRX=0;  
			for (int l = 0; l < 50; l++)
     4d8:	e2 17       	cp	r30, r18
     4da:	f3 07       	cpc	r31, r19
     4dc:	b1 f7       	brne	.-20     	; 0x4ca <usr_frame_received_cb+0x58>
     4de:	99 23       	and	r25, r25
     4e0:	21 f0       	breq	.+8      	; 0x4ea <usr_frame_received_cb+0x78>
     4e2:	70 93 1c 02 	sts	0x021C, r23	; 0x80021c <longitudTramaRX+0x1>
     4e6:	60 93 1b 02 	sts	0x021B, r22	; 0x80021b <longitudTramaRX>
				{
					longitudTramaRX=l+1;
				}
			}
			//Re-transmision de la trama recibida atraves de la ID_DEFAULT
			ctrReTX=1;
     4ea:	81 e0       	ldi	r24, 0x01	; 1
     4ec:	90 e0       	ldi	r25, 0x00	; 0
     4ee:	90 93 18 02 	sts	0x0218, r25	; 0x800218 <ctrReTX+0x1>
     4f2:	80 93 17 02 	sts	0x0217, r24	; 0x800217 <ctrReTX>
     4f6:	8c c0       	rjmp	.+280    	; 0x610 <usr_frame_received_cb+0x19e>
			//transmit_sample_frame(trama_recibida.CargaUtil_802_15_4, longitudTramaRX);	
		}
		else if(trama_recibida.d_dstn==0xFFFF) // Si se cumple esta condicion la trama es de bajada		
     4f8:	01 96       	adiw	r24, 0x01	; 1
     4fa:	09 f0       	breq	.+2      	; 0x4fe <usr_frame_received_cb+0x8c>
     4fc:	89 c0       	rjmp	.+274    	; 0x610 <usr_frame_received_cb+0x19e>
 */
__always_inline static void arch_ioport_toggle_pin_level(ioport_pin_t pin)
{
	PORT_t *base = arch_ioport_pin_to_base(pin);

	base->PINCRL = arch_ioport_pin_to_mask(pin);
     4fe:	80 e4       	ldi	r24, 0x40	; 64
     500:	89 b9       	out	0x09, r24	; 9
			int longitudListaNS_1=7;
			LED_Toggle(LED0);
			// Berificar que el Nivel de energia no ha sido almacenado previamente  
			for (int i=0; i<longitudListaNS_1; i++)
			{
				if (listaNS[i].ID_DIR_NS==trama_recibida.d_orgn)
     502:	40 91 9d 04 	lds	r20, 0x049D	; 0x80049d <trama_recibida+0x8>
     506:	50 91 9e 04 	lds	r21, 0x049E	; 0x80049e <trama_recibida+0x9>
     50a:	ee e1       	ldi	r30, 0x1E	; 30
     50c:	f5 e0       	ldi	r31, 0x05	; 5
     50e:	2a e3       	ldi	r18, 0x3A	; 58
     510:	35 e0       	ldi	r19, 0x05	; 5
			//transmit_sample_frame(trama_recibida.CargaUtil_802_15_4, longitudTramaRX);	
		}
		else if(trama_recibida.d_dstn==0xFFFF) // Si se cumple esta condicion la trama es de bajada		
		{	
			// Almacenar Niveles de Energia ////////////////////////////////////////////////////////////
			int coincedencia_ID_NS=0;
     512:	60 e0       	ldi	r22, 0x00	; 0
     514:	70 e0       	ldi	r23, 0x00	; 0
			for (int i=0; i<longitudListaNS_1; i++)
			{
				if (listaNS[i].ID_DIR_NS==trama_recibida.d_orgn)
				{
					//crtfor++;
					coincedencia_ID_NS=1;// Si esta condicion se cumple, el NS de la trama rx ya se enuentra en la lista de niveles de energia
     516:	b1 e0       	ldi	r27, 0x01	; 1
     518:	a0 e0       	ldi	r26, 0x00	; 0
			int longitudListaNS_1=7;
			LED_Toggle(LED0);
			// Berificar que el Nivel de energia no ha sido almacenado previamente  
			for (int i=0; i<longitudListaNS_1; i++)
			{
				if (listaNS[i].ID_DIR_NS==trama_recibida.d_orgn)
     51a:	82 81       	ldd	r24, Z+2	; 0x02
     51c:	93 81       	ldd	r25, Z+3	; 0x03
     51e:	84 17       	cp	r24, r20
     520:	95 07       	cpc	r25, r21
     522:	11 f4       	brne	.+4      	; 0x528 <usr_frame_received_cb+0xb6>
				{
					//crtfor++;
					coincedencia_ID_NS=1;// Si esta condicion se cumple, el NS de la trama rx ya se enuentra en la lista de niveles de energia
     524:	6b 2f       	mov	r22, r27
     526:	7a 2f       	mov	r23, r26
     528:	34 96       	adiw	r30, 0x04	; 4
			int coincedencia_ID_NS=0;
			//int longitudListaNS_1=sizeof(listaNS);
			int longitudListaNS_1=7;
			LED_Toggle(LED0);
			// Berificar que el Nivel de energia no ha sido almacenado previamente  
			for (int i=0; i<longitudListaNS_1; i++)
     52a:	e2 17       	cp	r30, r18
     52c:	f3 07       	cpc	r31, r19
     52e:	a9 f7       	brne	.-22     	; 0x51a <usr_frame_received_cb+0xa8>
					//crtfor++;
					coincedencia_ID_NS=1;// Si esta condicion se cumple, el NS de la trama rx ya se enuentra en la lista de niveles de energia
					//LED_Toggle(LED1);// 
				}
			}
			if (coincedencia_ID_NS==0)// Si esta condicion se cumple, el NS de la trama rx se debe extraer del buffer y almacenarlo  
     530:	67 2b       	or	r22, r23
     532:	41 f5       	brne	.+80     	; 0x584 <usr_frame_received_cb+0x112>
			{
				// Extraccion del nivel de energia
				uint8_t *payload_ptr=frame->mpdu;
     534:	ef 81       	ldd	r30, Y+7	; 0x07
     536:	f8 85       	ldd	r31, Y+8	; 0x08
				uint8_t mpdu_len =payload_ptr[0]+2;
				uint8_t potencia_trama=payload_ptr[mpdu_len];
     538:	80 81       	ld	r24, Z
     53a:	8e 5f       	subi	r24, 0xFE	; 254
     53c:	e8 0f       	add	r30, r24
     53e:	f1 1d       	adc	r31, r1
     540:	20 81       	ld	r18, Z
     542:	84 e0       	ldi	r24, 0x04	; 4
     544:	8c b9       	out	0x0c, r24	; 12
				//Agregacion de nuevos datos de NS
				LED_Toggle(LED2);
				listaNS[cont_NS].NS=potencia_trama;
     546:	80 91 1d 02 	lds	r24, 0x021D	; 0x80021d <cont_NS>
     54a:	90 91 1e 02 	lds	r25, 0x021E	; 0x80021e <cont_NS+0x1>
     54e:	fc 01       	movw	r30, r24
     550:	ee 0f       	add	r30, r30
     552:	ff 1f       	adc	r31, r31
     554:	ee 0f       	add	r30, r30
     556:	ff 1f       	adc	r31, r31
     558:	e2 5e       	subi	r30, 0xE2	; 226
     55a:	fa 4f       	sbci	r31, 0xFA	; 250
     55c:	30 e0       	ldi	r19, 0x00	; 0
     55e:	31 83       	std	Z+1, r19	; 0x01
     560:	20 83       	st	Z, r18
				listaNS[cont_NS].ID_DIR_NS=trama_recibida.d_orgn;
     562:	20 91 9d 04 	lds	r18, 0x049D	; 0x80049d <trama_recibida+0x8>
     566:	30 91 9e 04 	lds	r19, 0x049E	; 0x80049e <trama_recibida+0x9>
     56a:	33 83       	std	Z+3, r19	; 0x03
     56c:	22 83       	std	Z+2, r18	; 0x02
				cont_NS++;
     56e:	01 96       	adiw	r24, 0x01	; 1
     570:	90 93 1e 02 	sts	0x021E, r25	; 0x80021e <cont_NS+0x1>
     574:	80 93 1d 02 	sts	0x021D, r24	; 0x80021d <cont_NS>
				DatosNSIniciales=1;			
     578:	81 e0       	ldi	r24, 0x01	; 1
     57a:	90 e0       	ldi	r25, 0x00	; 0
     57c:	90 93 14 02 	sts	0x0214, r25	; 0x800214 <DatosNSIniciales+0x1>
     580:	80 93 13 02 	sts	0x0213, r24	; 0x800213 <DatosNSIniciales>
			}
			//Extraccion de la direccion de destino final( ID_DF) de la trama de bajada
			uint8_t DF1=trama_recibida.CargaUtil_802_15_4[0];
     584:	e5 e9       	ldi	r30, 0x95	; 149
     586:	f4 e0       	ldi	r31, 0x04	; 4
			uint8_t DF2=trama_recibida.CargaUtil_802_15_4[1];
			//Combinacion de los dos primeros bytes para obtener una dirreccion 
			uint16_t ID_DF;
			ID_DF=DF1*0x100;// Se recorren 8 bits a la izquierda
     588:	82 85       	ldd	r24, Z+10	; 0x0a
     58a:	90 e0       	ldi	r25, 0x00	; 0
     58c:	98 2f       	mov	r25, r24
     58e:	88 27       	eor	r24, r24
			ID_DF=ID_DF+DF2; //Se completan los bits restantes
			
			if (ID_S==ID_DF) //Se comprueba que la direccion de destino final pertenece al nodo o no
     590:	23 85       	ldd	r18, Z+11	; 0x0b
     592:	82 0f       	add	r24, r18
     594:	91 1d       	adc	r25, r1
     596:	20 91 3e 05 	lds	r18, 0x053E	; 0x80053e <ID_S>
     59a:	30 91 3f 05 	lds	r19, 0x053F	; 0x80053f <ID_S+0x1>
     59e:	82 17       	cp	r24, r18
     5a0:	93 07       	cpc	r25, r19
     5a2:	59 f4       	brne	.+22     	; 0x5ba <usr_frame_received_cb+0x148>
			{				
				// Nueva Direccion por Defecto ID_DEFAULT almacenada en una trama de bajada
				uint8_t ID_DEFAULT_Rx1 = trama_recibida.CargaUtil_802_15_4[2];
				uint8_t ID_DEFAULT_Rx2 = trama_recibida.CargaUtil_802_15_4[3];	
				uint16_t ID_DEFAULT_NUEVO;// Almacena el nuevo identificador por defecto			
				ID_DEFAULT_NUEVO=ID_DEFAULT_Rx1*0x100;// Se recorren 8 bits a la izquierda
     5a4:	84 85       	ldd	r24, Z+12	; 0x0c
     5a6:	90 e0       	ldi	r25, 0x00	; 0
     5a8:	98 2f       	mov	r25, r24
     5aa:	88 27       	eor	r24, r24
				ID_DEFAULT_NUEVO=ID_DEFAULT_NUEVO+ID_DEFAULT_Rx2;// Se completan los bits restantes
				// Agregacion del nuevo identificador por defecto
				ID_DEFAULT=ID_DEFAULT_NUEVO;
     5ac:	25 85       	ldd	r18, Z+13	; 0x0d
     5ae:	82 0f       	add	r24, r18
     5b0:	91 1d       	adc	r25, r1
     5b2:	90 93 3d 05 	sts	0x053D, r25	; 0x80053d <ID_DEFAULT+0x1>
     5b6:	80 93 3c 05 	sts	0x053C, r24	; 0x80053c <ID_DEFAULT>
				//cargarDir=1;// Inavilita la asignacion de ID_DEF desde la funcion principal
			}
			// Prevencion de bucles
			int coincedencia_IDTrama=0;
			uint8_t idTramaRx=trama_recibida.CargaUtil_802_15_4[4];
     5ba:	30 91 a3 04 	lds	r19, 0x04A3	; 0x8004a3 <trama_recibida+0xe>
			for(int i=0; i<=longitud_IDTramas; i++)
     5be:	60 91 19 02 	lds	r22, 0x0219	; 0x800219 <longitud_IDTramas>
     5c2:	70 91 1a 02 	lds	r23, 0x021A	; 0x80021a <longitud_IDTramas+0x1>
     5c6:	77 23       	and	r23, r23
     5c8:	9c f0       	brlt	.+38     	; 0x5f0 <usr_frame_received_cb+0x17e>
     5ca:	e7 e0       	ldi	r30, 0x07	; 7
     5cc:	f5 e0       	ldi	r31, 0x05	; 5
     5ce:	80 e0       	ldi	r24, 0x00	; 0
     5d0:	90 e0       	ldi	r25, 0x00	; 0
     5d2:	40 e0       	ldi	r20, 0x00	; 0
     5d4:	50 e0       	ldi	r21, 0x00	; 0
			{
				if (IDS_TRAMAS[i]==idTramaRx)
				{
					coincedencia_IDTrama=1;// Indica que se encontro el ID_FRAME 
     5d6:	b1 e0       	ldi	r27, 0x01	; 1
     5d8:	a0 e0       	ldi	r26, 0x00	; 0
			// Prevencion de bucles
			int coincedencia_IDTrama=0;
			uint8_t idTramaRx=trama_recibida.CargaUtil_802_15_4[4];
			for(int i=0; i<=longitud_IDTramas; i++)
			{
				if (IDS_TRAMAS[i]==idTramaRx)
     5da:	21 91       	ld	r18, Z+
     5dc:	32 13       	cpse	r19, r18
     5de:	02 c0       	rjmp	.+4      	; 0x5e4 <usr_frame_received_cb+0x172>
				{
					coincedencia_IDTrama=1;// Indica que se encontro el ID_FRAME 
     5e0:	4b 2f       	mov	r20, r27
     5e2:	5a 2f       	mov	r21, r26
				//cargarDir=1;// Inavilita la asignacion de ID_DEF desde la funcion principal
			}
			// Prevencion de bucles
			int coincedencia_IDTrama=0;
			uint8_t idTramaRx=trama_recibida.CargaUtil_802_15_4[4];
			for(int i=0; i<=longitud_IDTramas; i++)
     5e4:	01 96       	adiw	r24, 0x01	; 1
     5e6:	68 17       	cp	r22, r24
     5e8:	79 07       	cpc	r23, r25
     5ea:	bc f7       	brge	.-18     	; 0x5da <usr_frame_received_cb+0x168>
				if (IDS_TRAMAS[i]==idTramaRx)
				{
					coincedencia_IDTrama=1;// Indica que se encontro el ID_FRAME 
				}					
			}
			if (coincedencia_IDTrama==0)
     5ec:	45 2b       	or	r20, r21
     5ee:	81 f4       	brne	.+32     	; 0x610 <usr_frame_received_cb+0x19e>
			{
				IDS_TRAMAS[longitud_IDTramas]=idTramaRx;// Se agrega un nuevo Identificador
     5f0:	fb 01       	movw	r30, r22
     5f2:	e9 5f       	subi	r30, 0xF9	; 249
     5f4:	fa 4f       	sbci	r31, 0xFA	; 250
     5f6:	30 83       	st	Z, r19
				//Re-transmision bajada
				//transmit_sample_frame(trama_recibida.CargaUtil_802_15_4, 5);	
				ctrReTX=2;
     5f8:	82 e0       	ldi	r24, 0x02	; 2
     5fa:	90 e0       	ldi	r25, 0x00	; 0
     5fc:	90 93 18 02 	sts	0x0218, r25	; 0x800218 <ctrReTX+0x1>
     600:	80 93 17 02 	sts	0x0217, r24	; 0x800217 <ctrReTX>
				longitud_IDTramas++;
     604:	6f 5f       	subi	r22, 0xFF	; 255
     606:	7f 4f       	sbci	r23, 0xFF	; 255
     608:	70 93 1a 02 	sts	0x021A, r23	; 0x80021a <longitud_IDTramas+0x1>
     60c:	60 93 19 02 	sts	0x0219, r22	; 0x800219 <longitud_IDTramas>
			}				
		}
		delay_ms(0);
     610:	62 e0       	ldi	r22, 0x02	; 2
     612:	70 e0       	ldi	r23, 0x00	; 0
     614:	80 e0       	ldi	r24, 0x00	; 0
     616:	90 e0       	ldi	r25, 0x00	; 0
     618:	21 df       	rcall	.-446    	; 0x45c <__portable_avr_delay_cycles>
		bmm_buffer_free(frame->buffer_header);//Elimina los datos del buffer, evita superpocicion.
     61a:	89 81       	ldd	r24, Y+1	; 0x01
     61c:	9a 81       	ldd	r25, Y+2	; 0x02
     61e:	c6 d7       	rcall	.+3980   	; 0x15ac <bmm_buffer_free>
}
     620:	df 91       	pop	r29
     622:	cf 91       	pop	r28
     624:	08 95       	ret

00000626 <usr_frame_transmitted_cb>:

void usr_frame_transmitted_cb(retval_t status, frame_info_t *frame)
{
     626:	08 95       	ret

00000628 <reverse>:
}
///////////////////////////////////////////////////////////////////////////////////

void reverse(char* str, int len)
{
	int i = 0, j = len - 1, temp;
     628:	9b 01       	movw	r18, r22
     62a:	21 50       	subi	r18, 0x01	; 1
     62c:	31 09       	sbc	r19, r1
	while (i < j) {
     62e:	12 16       	cp	r1, r18
     630:	13 06       	cpc	r1, r19
     632:	84 f4       	brge	.+32     	; 0x654 <reverse+0x2c>
     634:	fc 01       	movw	r30, r24
     636:	e6 0f       	add	r30, r22
     638:	f7 1f       	adc	r31, r23
     63a:	dc 01       	movw	r26, r24
     63c:	80 e0       	ldi	r24, 0x00	; 0
     63e:	90 e0       	ldi	r25, 0x00	; 0
		temp = str[i];
     640:	4c 91       	ld	r20, X
		str[i] = str[j];
     642:	52 91       	ld	r21, -Z
     644:	5d 93       	st	X+, r21
		str[j] = temp;
     646:	40 83       	st	Z, r20
		i++;
     648:	01 96       	adiw	r24, 0x01	; 1
		j--;
     64a:	21 50       	subi	r18, 0x01	; 1
     64c:	31 09       	sbc	r19, r1
///////////////////////////////////////////////////////////////////////////////////

void reverse(char* str, int len)
{
	int i = 0, j = len - 1, temp;
	while (i < j) {
     64e:	82 17       	cp	r24, r18
     650:	93 07       	cpc	r25, r19
     652:	b4 f3       	brlt	.-20     	; 0x640 <reverse+0x18>
     654:	08 95       	ret

00000656 <intToStr>:
		j--;
	}
}

int intToStr(int x, char str[], int d)
{
     656:	cf 92       	push	r12
     658:	df 92       	push	r13
     65a:	ef 92       	push	r14
     65c:	ff 92       	push	r15
     65e:	0f 93       	push	r16
     660:	1f 93       	push	r17
     662:	cf 93       	push	r28
     664:	df 93       	push	r29
     666:	6b 01       	movw	r12, r22
     668:	8a 01       	movw	r16, r20
	int i = 0;
	while (x) {
     66a:	00 97       	sbiw	r24, 0x00	; 0
     66c:	99 f0       	breq	.+38     	; 0x694 <intToStr+0x3e>
     66e:	eb 01       	movw	r28, r22
     670:	e0 e0       	ldi	r30, 0x00	; 0
     672:	f0 e0       	ldi	r31, 0x00	; 0
		str[i++] = (x % 10) + '0';
     674:	0f 2e       	mov	r0, r31
     676:	fa e0       	ldi	r31, 0x0A	; 10
     678:	ef 2e       	mov	r14, r31
     67a:	f1 2c       	mov	r15, r1
     67c:	f0 2d       	mov	r31, r0
     67e:	31 96       	adiw	r30, 0x01	; 1
     680:	b7 01       	movw	r22, r14
     682:	0e 94 eb 1c 	call	0x39d6	; 0x39d6 <__divmodhi4>
     686:	80 5d       	subi	r24, 0xD0	; 208
     688:	89 93       	st	Y+, r24
		x = x / 10;
     68a:	86 2f       	mov	r24, r22
     68c:	97 2f       	mov	r25, r23
}

int intToStr(int x, char str[], int d)
{
	int i = 0;
	while (x) {
     68e:	00 97       	sbiw	r24, 0x00	; 0
     690:	b1 f7       	brne	.-20     	; 0x67e <intToStr+0x28>
     692:	02 c0       	rjmp	.+4      	; 0x698 <intToStr+0x42>
	}
}

int intToStr(int x, char str[], int d)
{
	int i = 0;
     694:	e0 e0       	ldi	r30, 0x00	; 0
     696:	f0 e0       	ldi	r31, 0x00	; 0
		x = x / 10;
	}
	
	// If number of digits required is more, then
	// add 0s at the beginning
	while (i < d)
     698:	e0 17       	cp	r30, r16
     69a:	f1 07       	cpc	r31, r17
     69c:	5c f4       	brge	.+22     	; 0x6b4 <intToStr+0x5e>
     69e:	ec 0d       	add	r30, r12
     6a0:	fd 1d       	adc	r31, r13
     6a2:	96 01       	movw	r18, r12
     6a4:	20 0f       	add	r18, r16
     6a6:	31 1f       	adc	r19, r17
	str[i++] = '0';
     6a8:	80 e3       	ldi	r24, 0x30	; 48
     6aa:	81 93       	st	Z+, r24
		x = x / 10;
	}
	
	// If number of digits required is more, then
	// add 0s at the beginning
	while (i < d)
     6ac:	e2 17       	cp	r30, r18
     6ae:	f3 07       	cpc	r31, r19
     6b0:	e1 f7       	brne	.-8      	; 0x6aa <intToStr+0x54>
     6b2:	01 c0       	rjmp	.+2      	; 0x6b6 <intToStr+0x60>
     6b4:	8f 01       	movw	r16, r30
	str[i++] = '0';
	
	reverse(str, i);
     6b6:	b8 01       	movw	r22, r16
     6b8:	c6 01       	movw	r24, r12
     6ba:	b6 df       	rcall	.-148    	; 0x628 <reverse>
	str[i] = '\0';
     6bc:	e6 01       	movw	r28, r12
     6be:	c0 0f       	add	r28, r16
     6c0:	d1 1f       	adc	r29, r17
     6c2:	18 82       	st	Y, r1
	return i;
}
     6c4:	c8 01       	movw	r24, r16
     6c6:	df 91       	pop	r29
     6c8:	cf 91       	pop	r28
     6ca:	1f 91       	pop	r17
     6cc:	0f 91       	pop	r16
     6ce:	ff 90       	pop	r15
     6d0:	ef 90       	pop	r14
     6d2:	df 90       	pop	r13
     6d4:	cf 90       	pop	r12
     6d6:	08 95       	ret

000006d8 <ftoa>:

void ftoa(float n, char* res, int afterpoint)
{
     6d8:	2f 92       	push	r2
     6da:	3f 92       	push	r3
     6dc:	4f 92       	push	r4
     6de:	5f 92       	push	r5
     6e0:	6f 92       	push	r6
     6e2:	7f 92       	push	r7
     6e4:	8f 92       	push	r8
     6e6:	9f 92       	push	r9
     6e8:	af 92       	push	r10
     6ea:	bf 92       	push	r11
     6ec:	cf 92       	push	r12
     6ee:	df 92       	push	r13
     6f0:	ef 92       	push	r14
     6f2:	ff 92       	push	r15
     6f4:	0f 93       	push	r16
     6f6:	1f 93       	push	r17
     6f8:	cf 93       	push	r28
     6fa:	df 93       	push	r29
     6fc:	4b 01       	movw	r8, r22
     6fe:	5c 01       	movw	r10, r24
     700:	8a 01       	movw	r16, r20
     702:	e9 01       	movw	r28, r18
	// Extract integer part
	int ipart = (int)n;
     704:	0e 94 d9 19 	call	0x33b2	; 0x33b2 <__fixsfsi>
     708:	6b 01       	movw	r12, r22
     70a:	7c 01       	movw	r14, r24
	
	// Extract floating part
	float fpart = n - (float)ipart;
	
	// convert integer part to string
	int i = intToStr(ipart, res, 0);
     70c:	40 e0       	ldi	r20, 0x00	; 0
     70e:	50 e0       	ldi	r21, 0x00	; 0
     710:	b8 01       	movw	r22, r16
     712:	c6 01       	movw	r24, r12
     714:	a0 df       	rcall	.-192    	; 0x656 <intToStr>
     716:	1c 01       	movw	r2, r24
	
	// check for display option after point
	if (afterpoint != 0) {
     718:	20 97       	sbiw	r28, 0x00	; 0
     71a:	91 f1       	breq	.+100    	; 0x780 <ftoa+0xa8>
		res[i] = '.'; // add dot
     71c:	f8 01       	movw	r30, r16
     71e:	e8 0f       	add	r30, r24
     720:	f9 1f       	adc	r31, r25
     722:	8e e2       	ldi	r24, 0x2E	; 46
     724:	80 83       	st	Z, r24
		
		// Get the value of fraction part upto given no.
		// of points after dot. The third parameter
		// is needed to handle cases like 233.007
		fpart = fpart * pow(10, afterpoint);
     726:	be 01       	movw	r22, r28
     728:	0d 2e       	mov	r0, r29
     72a:	00 0c       	add	r0, r0
     72c:	88 0b       	sbc	r24, r24
     72e:	99 0b       	sbc	r25, r25
     730:	0e 94 0c 1a 	call	0x3418	; 0x3418 <__floatsisf>
     734:	9b 01       	movw	r18, r22
     736:	ac 01       	movw	r20, r24
     738:	60 e0       	ldi	r22, 0x00	; 0
     73a:	70 e0       	ldi	r23, 0x00	; 0
     73c:	80 e2       	ldi	r24, 0x20	; 32
     73e:	91 e4       	ldi	r25, 0x41	; 65
     740:	0e 94 fb 1a 	call	0x35f6	; 0x35f6 <pow>
     744:	2b 01       	movw	r4, r22
     746:	3c 01       	movw	r6, r24
{
	// Extract integer part
	int ipart = (int)n;
	
	// Extract floating part
	float fpart = n - (float)ipart;
     748:	b6 01       	movw	r22, r12
     74a:	dd 0c       	add	r13, r13
     74c:	88 0b       	sbc	r24, r24
     74e:	99 0b       	sbc	r25, r25
     750:	0e 94 0c 1a 	call	0x3418	; 0x3418 <__floatsisf>
     754:	9b 01       	movw	r18, r22
     756:	ac 01       	movw	r20, r24
     758:	c5 01       	movw	r24, r10
     75a:	b4 01       	movw	r22, r8
     75c:	0e 94 74 19 	call	0x32e8	; 0x32e8 <__subsf3>
		// Get the value of fraction part upto given no.
		// of points after dot. The third parameter
		// is needed to handle cases like 233.007
		fpart = fpart * pow(10, afterpoint);
		
		intToStr((int)fpart, res + i + 1, afterpoint);
     760:	2f ef       	ldi	r18, 0xFF	; 255
     762:	22 1a       	sub	r2, r18
     764:	32 0a       	sbc	r3, r18
     766:	02 0d       	add	r16, r2
     768:	13 1d       	adc	r17, r3
     76a:	a3 01       	movw	r20, r6
     76c:	92 01       	movw	r18, r4
     76e:	0e 94 98 1a 	call	0x3530	; 0x3530 <__mulsf3>
     772:	0e 94 d9 19 	call	0x33b2	; 0x33b2 <__fixsfsi>
     776:	dc 01       	movw	r26, r24
     778:	cb 01       	movw	r24, r22
     77a:	ae 01       	movw	r20, r28
     77c:	b8 01       	movw	r22, r16
     77e:	6b df       	rcall	.-298    	; 0x656 <intToStr>
	}
}
     780:	df 91       	pop	r29
     782:	cf 91       	pop	r28
     784:	1f 91       	pop	r17
     786:	0f 91       	pop	r16
     788:	ff 90       	pop	r15
     78a:	ef 90       	pop	r14
     78c:	df 90       	pop	r13
     78e:	cf 90       	pop	r12
     790:	bf 90       	pop	r11
     792:	af 90       	pop	r10
     794:	9f 90       	pop	r9
     796:	8f 90       	pop	r8
     798:	7f 90       	pop	r7
     79a:	6f 90       	pop	r6
     79c:	5f 90       	pop	r5
     79e:	4f 90       	pop	r4
     7a0:	3f 90       	pop	r3
     7a2:	2f 90       	pop	r2
     7a4:	08 95       	ret

000007a6 <get_bat_sensor_data>:
////////////////////////////////////////////////////////////////////////////////////7
float get_bat_sensor_data(void)
{
	float bat_voltage;
	bat_voltage = reverse_float(convert_mv_to_v(tfa_get_batmon_voltage()));
     7a6:	0e 94 6f 14 	call	0x28de	; 0x28de <tfa_get_batmon_voltage>
	return bat_voltage;
     7aa:	bc 01       	movw	r22, r24
     7ac:	80 e0       	ldi	r24, 0x00	; 0
     7ae:	90 e0       	ldi	r25, 0x00	; 0
     7b0:	0e 94 0a 1a 	call	0x3414	; 0x3414 <__floatunsisf>
     7b4:	2f e6       	ldi	r18, 0x6F	; 111
     7b6:	32 e1       	ldi	r19, 0x12	; 18
     7b8:	43 e8       	ldi	r20, 0x83	; 131
     7ba:	5a e3       	ldi	r21, 0x3A	; 58
     7bc:	0c 94 98 1a 	jmp	0x3530	; 0x3530 <__mulsf3>
}
     7c0:	08 95       	ret

000007c2 <usr_wireless_app_task>:
void reverse(char* str, int len);
int intToStr(int x, char str[], int d);
void ftoa(float n, char* res, int afterpoint);

void usr_wireless_app_task(void)
{
     7c2:	cf 93       	push	r28
     7c4:	df 93       	push	r29
     7c6:	cd b7       	in	r28, 0x3d	; 61
     7c8:	de b7       	in	r29, 0x3e	; 62
     7ca:	e2 97       	sbiw	r28, 0x32	; 50
     7cc:	0f b6       	in	r0, 0x3f	; 63
     7ce:	f8 94       	cli
     7d0:	de bf       	out	0x3e, r29	; 62
     7d2:	0f be       	out	0x3f, r0	; 63
     7d4:	cd bf       	out	0x3d, r28	; 61

	SRC_ADDR_=0x0001;// Identificador de direccion fuente(source)
     7d6:	81 e0       	ldi	r24, 0x01	; 1
     7d8:	90 e0       	ldi	r25, 0x00	; 0
     7da:	90 93 1c 05 	sts	0x051C, r25	; 0x80051c <SRC_ADDR_+0x1>
     7de:	80 93 1b 05 	sts	0x051B, r24	; 0x80051b <SRC_ADDR_>
	SRC_ADDR_ = CCPU_ENDIAN_TO_LE16(SRC_ADDR_);
	tal_pib_set(macShortAddress, (pib_value_t *)&SRC_ADDR_);// Asignacon de direccion fuente
     7e2:	6b e1       	ldi	r22, 0x1B	; 27
     7e4:	75 e0       	ldi	r23, 0x05	; 5
     7e6:	83 e5       	ldi	r24, 0x53	; 83
     7e8:	0e 94 ce 10 	call	0x219c	; 0x219c <tal_pib_set>
	ID_S=SRC_ADDR_; // Almacenamiento de direccion fuente previamente asignada
     7ec:	80 91 1b 05 	lds	r24, 0x051B	; 0x80051b <SRC_ADDR_>
     7f0:	90 91 1c 05 	lds	r25, 0x051C	; 0x80051c <SRC_ADDR_+0x1>
     7f4:	80 93 3e 05 	sts	0x053E, r24	; 0x80053e <ID_S>
     7f8:	90 93 3f 05 	sts	0x053F, r25	; 0x80053f <ID_S+0x1>
	if (cargarDir==0)
     7fc:	20 91 11 02 	lds	r18, 0x0211	; 0x800211 <cargarDir>
     800:	30 91 12 02 	lds	r19, 0x0212	; 0x800212 <cargarDir+0x1>
     804:	23 2b       	or	r18, r19
     806:	81 f4       	brne	.+32     	; 0x828 <usr_wireless_app_task+0x66>
	{
		DST_ADDR_=0x0002;// Almacenamiento del identificador para alcanzar al siguiente nodo, se ingresa un valor inicial.
     808:	22 e0       	ldi	r18, 0x02	; 2
     80a:	30 e0       	ldi	r19, 0x00	; 0
     80c:	30 93 3b 05 	sts	0x053B, r19	; 0x80053b <DST_ADDR_+0x1>
     810:	20 93 3a 05 	sts	0x053A, r18	; 0x80053a <DST_ADDR_>
		ID_DEFAULT=DST_ADDR_;
     814:	30 93 3d 05 	sts	0x053D, r19	; 0x80053d <ID_DEFAULT+0x1>
     818:	20 93 3c 05 	sts	0x053C, r18	; 0x80053c <ID_DEFAULT>
		cargarDir=1;
     81c:	21 e0       	ldi	r18, 0x01	; 1
     81e:	30 e0       	ldi	r19, 0x00	; 0
     820:	30 93 12 02 	sts	0x0212, r19	; 0x800212 <cargarDir+0x1>
     824:	20 93 11 02 	sts	0x0211, r18	; 0x800211 <cargarDir>
	}
	//Datos Iniciales 
	if (DatosNSIniciales==0)
     828:	20 91 13 02 	lds	r18, 0x0213	; 0x800213 <DatosNSIniciales>
     82c:	30 91 14 02 	lds	r19, 0x0214	; 0x800214 <DatosNSIniciales+0x1>
     830:	23 2b       	or	r18, r19
     832:	31 f4       	brne	.+12     	; 0x840 <usr_wireless_app_task+0x7e>
	{
		longitudListaNS=1;	
     834:	21 e0       	ldi	r18, 0x01	; 1
     836:	30 e0       	ldi	r19, 0x00	; 0
     838:	30 93 20 02 	sts	0x0220, r19	; 0x800220 <longitudListaNS+0x1>
     83c:	20 93 1f 02 	sts	0x021F, r18	; 0x80021f <longitudListaNS>
	}

	if (!ioport_get_pin_level(GPIO_PUSH_BUTTON_0))
     840:	60 99       	sbic	0x0c, 0	; 12
     842:	25 c0       	rjmp	.+74     	; 0x88e <usr_wireless_app_task+0xcc>
	{
		delay_ms(10); //Retardo para que funcione el pulsador
     844:	66 e1       	ldi	r22, 0x16	; 22
     846:	74 e3       	ldi	r23, 0x34	; 52
     848:	80 e0       	ldi	r24, 0x00	; 0
     84a:	90 e0       	ldi	r25, 0x00	; 0
     84c:	07 de       	rcall	.-1010   	; 0x45c <__portable_avr_delay_cycles>
		longitudListaNS=cont_NS;//Cambia de valor cuando es deshabilitado el if anterior
     84e:	80 91 1d 02 	lds	r24, 0x021D	; 0x80021d <cont_NS>
     852:	90 91 1e 02 	lds	r25, 0x021E	; 0x80021e <cont_NS+0x1>
     856:	90 93 20 02 	sts	0x0220, r25	; 0x800220 <longitudListaNS+0x1>
     85a:	80 93 1f 02 	sts	0x021F, r24	; 0x80021f <longitudListaNS>
		//longitudListaNS=7;
		iniTx=1;
     85e:	81 e0       	ldi	r24, 0x01	; 1
     860:	90 e0       	ldi	r25, 0x00	; 0
     862:	90 93 16 02 	sts	0x0216, r25	; 0x800216 <iniTx+0x1>
     866:	80 93 15 02 	sts	0x0215, r24	; 0x800215 <iniTx>
		// Obtener nivel de Bateria ////////////////////////////////////////////////////////////
		char charBateria[20]; // Almacena el nivel de la bateria comvertido en una cadena de caracteres
		float floatBateria=get_bat_sensor_data();// Obtiene en nivel de bateria
     86a:	9d df       	rcall	.-198    	; 0x7a6 <get_bat_sensor_data>
		ftoa(floatBateria, charBateria, 4);// Combierte el nivel de bateria de float a una cadena de caracteres hexadecimales
     86c:	24 e0       	ldi	r18, 0x04	; 4
     86e:	30 e0       	ldi	r19, 0x00	; 0
     870:	ae 01       	movw	r20, r28
     872:	4f 5f       	subi	r20, 0xFF	; 255
     874:	5f 4f       	sbci	r21, 0xFF	; 255
     876:	30 df       	rcall	.-416    	; 0x6d8 <ftoa>
		NB[0]=(uint8_t)charBateria[0];// almacena los cuatro primeros valores de la cadena en el vector NB
     878:	e0 e4       	ldi	r30, 0x40	; 64
     87a:	f5 e0       	ldi	r31, 0x05	; 5
     87c:	89 81       	ldd	r24, Y+1	; 0x01
     87e:	80 83       	st	Z, r24
		NB[1]=(uint8_t)charBateria[1];
     880:	8a 81       	ldd	r24, Y+2	; 0x02
     882:	81 83       	std	Z+1, r24	; 0x01
		NB[2]=(uint8_t)charBateria[2];
     884:	8b 81       	ldd	r24, Y+3	; 0x03
     886:	82 83       	std	Z+2, r24	; 0x02
		NB[3]=(uint8_t)charBateria[3];	
     888:	8c 81       	ldd	r24, Y+4	; 0x04
     88a:	83 83       	std	Z+3, r24	; 0x03
     88c:	58 c0       	rjmp	.+176    	; 0x93e <usr_wireless_app_task+0x17c>
	}
	else if (iniTx==1)
     88e:	20 91 15 02 	lds	r18, 0x0215	; 0x800215 <iniTx>
     892:	30 91 16 02 	lds	r19, 0x0216	; 0x800216 <iniTx+0x1>
     896:	21 30       	cpi	r18, 0x01	; 1
     898:	31 05       	cpc	r19, r1
     89a:	09 f0       	breq	.+2      	; 0x89e <usr_wireless_app_task+0xdc>
     89c:	50 c0       	rjmp	.+160    	; 0x93e <usr_wireless_app_task+0x17c>
	{ 	/////////////////////////// Construccion de la trama de subida a ser enviada  ///////////////////////////////////////////////
		iniTx=0;
     89e:	10 92 16 02 	sts	0x0216, r1	; 0x800216 <iniTx+0x1>
     8a2:	10 92 15 02 	sts	0x0215, r1	; 0x800215 <iniTx>
		//count_1=1;
		int indice=0;
		uint8_t TRAMA[50];//Trama de subida
		//-------IDENTIFICADOR FUENTE---------------------------------------//
		TRAMA[0]=(uint8_t)(ID_S >> 8);
     8a6:	99 83       	std	Y+1, r25	; 0x01
		TRAMA[1]=(uint8_t)ID_S;
     8a8:	8a 83       	std	Y+2, r24	; 0x02
		//-------NIVEL DE BATERIA-------------------------------------------//	
		TRAMA[2]=NB[0];
     8aa:	e0 e4       	ldi	r30, 0x40	; 64
     8ac:	f5 e0       	ldi	r31, 0x05	; 5
     8ae:	80 81       	ld	r24, Z
     8b0:	8b 83       	std	Y+3, r24	; 0x03
		TRAMA[3]=NB[1];
     8b2:	81 81       	ldd	r24, Z+1	; 0x01
     8b4:	8c 83       	std	Y+4, r24	; 0x04
		TRAMA[4]=NB[2];		
     8b6:	82 81       	ldd	r24, Z+2	; 0x02
     8b8:	8d 83       	std	Y+5, r24	; 0x05
		TRAMA[5]=NB[3];	
     8ba:	83 81       	ldd	r24, Z+3	; 0x03
     8bc:	8e 83       	std	Y+6, r24	; 0x06
			
		for (int i=0; i<longitudListaNS; i++)
     8be:	60 91 1f 02 	lds	r22, 0x021F	; 0x80021f <longitudListaNS>
     8c2:	70 91 20 02 	lds	r23, 0x0220	; 0x800220 <longitudListaNS+0x1>
     8c6:	16 16       	cp	r1, r22
     8c8:	17 06       	cpc	r1, r23
     8ca:	f4 f4       	brge	.+60     	; 0x908 <usr_wireless_app_task+0x146>
     8cc:	ae e1       	ldi	r26, 0x1E	; 30
     8ce:	b5 e0       	ldi	r27, 0x05	; 5
     8d0:	fe 01       	movw	r30, r28
     8d2:	31 96       	adiw	r30, 0x01	; 1
     8d4:	9b 01       	movw	r18, r22
     8d6:	22 0f       	add	r18, r18
     8d8:	33 1f       	adc	r19, r19
     8da:	22 0f       	add	r18, r18
     8dc:	33 1f       	adc	r19, r19
     8de:	2e 0f       	add	r18, r30
     8e0:	3f 1f       	adc	r19, r31
		{	
		//-------NIVEL DE SEAL--------------------------------------------//
			TRAMA[indice+6]=(uint8_t)(listaNS[i].NS >> 8);
     8e2:	8c 91       	ld	r24, X
     8e4:	11 96       	adiw	r26, 0x01	; 1
     8e6:	9c 91       	ld	r25, X
     8e8:	11 97       	sbiw	r26, 0x01	; 1
     8ea:	96 83       	std	Z+6, r25	; 0x06
			TRAMA[indice+7]=(uint8_t)listaNS[i].NS;
     8ec:	87 83       	std	Z+7, r24	; 0x07
		//-------IDENTIFICADOR DEL NIVEL DE SEAL--------------------------//
			TRAMA[indice+8]=(uint8_t)(listaNS[i].ID_DIR_NS >> 8);
     8ee:	12 96       	adiw	r26, 0x02	; 2
     8f0:	8c 91       	ld	r24, X
     8f2:	12 97       	sbiw	r26, 0x02	; 2
     8f4:	13 96       	adiw	r26, 0x03	; 3
     8f6:	9c 91       	ld	r25, X
     8f8:	13 97       	sbiw	r26, 0x03	; 3
     8fa:	90 87       	std	Z+8, r25	; 0x08
			TRAMA[indice+9]=(uint8_t)listaNS[i].ID_DIR_NS;
     8fc:	81 87       	std	Z+9, r24	; 0x09
     8fe:	14 96       	adiw	r26, 0x04	; 4
     900:	34 96       	adiw	r30, 0x04	; 4
		TRAMA[2]=NB[0];
		TRAMA[3]=NB[1];
		TRAMA[4]=NB[2];		
		TRAMA[5]=NB[3];	
			
		for (int i=0; i<longitudListaNS; i++)
     902:	e2 17       	cp	r30, r18
     904:	f3 07       	cpc	r31, r19
     906:	69 f7       	brne	.-38     	; 0x8e2 <usr_wireless_app_task+0x120>
			TRAMA[indice+8]=(uint8_t)(listaNS[i].ID_DIR_NS >> 8);
			TRAMA[indice+9]=(uint8_t)listaNS[i].ID_DIR_NS;
			
			indice=indice+4;
		}
		TRAMA[(longitudListaNS*4)+6]=0xFE;// CH de parada
     908:	fb 01       	movw	r30, r22
     90a:	ee 0f       	add	r30, r30
     90c:	ff 1f       	adc	r31, r31
     90e:	ee 0f       	add	r30, r30
     910:	ff 1f       	adc	r31, r31
     912:	81 e0       	ldi	r24, 0x01	; 1
     914:	90 e0       	ldi	r25, 0x00	; 0
     916:	8c 0f       	add	r24, r28
     918:	9d 1f       	adc	r25, r29
     91a:	e8 0f       	add	r30, r24
     91c:	f9 1f       	adc	r31, r25
     91e:	8e ef       	ldi	r24, 0xFE	; 254
     920:	86 83       	std	Z+6, r24	; 0x06
		DST_ADDR_=ID_DEFAULT;
     922:	80 91 3c 05 	lds	r24, 0x053C	; 0x80053c <ID_DEFAULT>
     926:	90 91 3d 05 	lds	r25, 0x053D	; 0x80053d <ID_DEFAULT+0x1>
     92a:	90 93 3b 05 	sts	0x053B, r25	; 0x80053b <DST_ADDR_+0x1>
     92e:	80 93 3a 05 	sts	0x053A, r24	; 0x80053a <DST_ADDR_>
		transmit_sample_frame(TRAMA, (longitudListaNS*4)+7);	
     932:	66 0f       	add	r22, r22
     934:	66 0f       	add	r22, r22
     936:	69 5f       	subi	r22, 0xF9	; 249
     938:	ce 01       	movw	r24, r28
     93a:	01 96       	adiw	r24, 0x01	; 1
     93c:	28 d1       	rcall	.+592    	; 0xb8e <transmit_sample_frame>
	
		//crtfor=0;
	}
	//////////////////////////////////////////////////////////////////////////////
	if (ctrReTX==1)
     93e:	80 91 17 02 	lds	r24, 0x0217	; 0x800217 <ctrReTX>
     942:	90 91 18 02 	lds	r25, 0x0218	; 0x800218 <ctrReTX+0x1>
     946:	81 30       	cpi	r24, 0x01	; 1
     948:	91 05       	cpc	r25, r1
     94a:	91 f4       	brne	.+36     	; 0x970 <usr_wireless_app_task+0x1ae>
	{
		DST_ADDR_=ID_DEFAULT;		
     94c:	80 91 3c 05 	lds	r24, 0x053C	; 0x80053c <ID_DEFAULT>
     950:	90 91 3d 05 	lds	r25, 0x053D	; 0x80053d <ID_DEFAULT+0x1>
     954:	90 93 3b 05 	sts	0x053B, r25	; 0x80053b <DST_ADDR_+0x1>
     958:	80 93 3a 05 	sts	0x053A, r24	; 0x80053a <DST_ADDR_>
		transmit_sample_frame(trama_recibida.CargaUtil_802_15_4, longitudTramaRX);
     95c:	60 91 1b 02 	lds	r22, 0x021B	; 0x80021b <longitudTramaRX>
     960:	8f e9       	ldi	r24, 0x9F	; 159
     962:	94 e0       	ldi	r25, 0x04	; 4
     964:	14 d1       	rcall	.+552    	; 0xb8e <transmit_sample_frame>
		ctrReTX=0;
     966:	10 92 18 02 	sts	0x0218, r1	; 0x800218 <ctrReTX+0x1>
     96a:	10 92 17 02 	sts	0x0217, r1	; 0x800217 <ctrReTX>
     96e:	1c c0       	rjmp	.+56     	; 0x9a8 <usr_wireless_app_task+0x1e6>
	} 
	if (ctrReTX==2)
     970:	02 97       	sbiw	r24, 0x02	; 2
     972:	d1 f4       	brne	.+52     	; 0x9a8 <usr_wireless_app_task+0x1e6>
	{
		int tiempo=(int)SRC_ADDR_;
		tiempo=tiempo*1;
		tiempoDuracionTimer=tiempo;
     974:	80 91 1b 05 	lds	r24, 0x051B	; 0x80051b <SRC_ADDR_>
     978:	90 91 1c 05 	lds	r25, 0x051C	; 0x80051c <SRC_ADDR_+0x1>
     97c:	90 93 22 02 	sts	0x0222, r25	; 0x800222 <tiempoDuracionTimer+0x1>
     980:	80 93 21 02 	sts	0x0221, r24	; 0x800221 <tiempoDuracionTimer>
		start_timer1();
     984:	3e d0       	rcall	.+124    	; 0xa02 <start_timer1>
		ctrtem=1;	
     986:	81 e0       	ldi	r24, 0x01	; 1
     988:	90 e0       	ldi	r25, 0x00	; 0
     98a:	90 93 10 02 	sts	0x0210, r25	; 0x800210 <ctrtem+0x1>
     98e:	80 93 0f 02 	sts	0x020F, r24	; 0x80020f <ctrtem>
		ctrReTX=0;
     992:	10 92 18 02 	sts	0x0218, r1	; 0x800218 <ctrReTX+0x1>
     996:	10 92 17 02 	sts	0x0217, r1	; 0x800217 <ctrReTX>
	}
	if (TimerFinaliza==1 && ctrtem==1)
     99a:	80 91 23 02 	lds	r24, 0x0223	; 0x800223 <TimerFinaliza>
     99e:	90 91 24 02 	lds	r25, 0x0224	; 0x800224 <TimerFinaliza+0x1>
     9a2:	01 97       	sbiw	r24, 0x01	; 1
     9a4:	01 f5       	brne	.+64     	; 0x9e6 <usr_wireless_app_task+0x224>
     9a6:	0c c0       	rjmp	.+24     	; 0x9c0 <usr_wireless_app_task+0x1fe>
     9a8:	80 91 23 02 	lds	r24, 0x0223	; 0x800223 <TimerFinaliza>
     9ac:	90 91 24 02 	lds	r25, 0x0224	; 0x800224 <TimerFinaliza+0x1>
     9b0:	01 97       	sbiw	r24, 0x01	; 1
     9b2:	c9 f4       	brne	.+50     	; 0x9e6 <usr_wireless_app_task+0x224>
     9b4:	80 91 0f 02 	lds	r24, 0x020F	; 0x80020f <ctrtem>
     9b8:	90 91 10 02 	lds	r25, 0x0210	; 0x800210 <ctrtem+0x1>
     9bc:	01 97       	sbiw	r24, 0x01	; 1
     9be:	99 f4       	brne	.+38     	; 0x9e6 <usr_wireless_app_task+0x224>
	{
		TimerFinaliza=0;
     9c0:	10 92 24 02 	sts	0x0224, r1	; 0x800224 <TimerFinaliza+0x1>
     9c4:	10 92 23 02 	sts	0x0223, r1	; 0x800223 <TimerFinaliza>
		ctrtem=0;
     9c8:	10 92 10 02 	sts	0x0210, r1	; 0x800210 <ctrtem+0x1>
     9cc:	10 92 0f 02 	sts	0x020F, r1	; 0x80020f <ctrtem>
		stop_timer1();
     9d0:	38 d0       	rcall	.+112    	; 0xa42 <stop_timer1>
		DST_ADDR_=0xFFFF;/* siguiente salto */
     9d2:	8f ef       	ldi	r24, 0xFF	; 255
     9d4:	9f ef       	ldi	r25, 0xFF	; 255
     9d6:	90 93 3b 05 	sts	0x053B, r25	; 0x80053b <DST_ADDR_+0x1>
     9da:	80 93 3a 05 	sts	0x053A, r24	; 0x80053a <DST_ADDR_>
		transmit_sample_frame(trama_recibida.CargaUtil_802_15_4, 5);
     9de:	65 e0       	ldi	r22, 0x05	; 5
     9e0:	8f e9       	ldi	r24, 0x9F	; 159
     9e2:	94 e0       	ldi	r25, 0x04	; 4
	}

	delay_ms(10);
     9e4:	d4 d0       	rcall	.+424    	; 0xb8e <transmit_sample_frame>
     9e6:	66 e1       	ldi	r22, 0x16	; 22
     9e8:	74 e3       	ldi	r23, 0x34	; 52
     9ea:	80 e0       	ldi	r24, 0x00	; 0
     9ec:	90 e0       	ldi	r25, 0x00	; 0
     9ee:	36 dd       	rcall	.-1428   	; 0x45c <__portable_avr_delay_cycles>
}
     9f0:	e2 96       	adiw	r28, 0x32	; 50
     9f2:	0f b6       	in	r0, 0x3f	; 63
     9f4:	f8 94       	cli
     9f6:	de bf       	out	0x3e, r29	; 62
     9f8:	0f be       	out	0x3f, r0	; 63
     9fa:	cd bf       	out	0x3d, r28	; 61
     9fc:	df 91       	pop	r29
     9fe:	cf 91       	pop	r28
     a00:	08 95       	ret

00000a02 <start_timer1>:
     a02:	ef 92       	push	r14
     a04:	ff 92       	push	r15
     a06:	0f 93       	push	r16
     a08:	1f 93       	push	r17
     a0a:	a0 91 21 02 	lds	r26, 0x0221	; 0x800221 <tiempoDuracionTimer>
     a0e:	b0 91 22 02 	lds	r27, 0x0222	; 0x800222 <tiempoDuracionTimer+0x1>
     a12:	20 e4       	ldi	r18, 0x40	; 64
     a14:	32 e4       	ldi	r19, 0x42	; 66
     a16:	4f e0       	ldi	r20, 0x0F	; 15
     a18:	50 e0       	ldi	r21, 0x00	; 0
     a1a:	0e 94 1f 1d 	call	0x3a3e	; 0x3a3e <__mulshisi3>
     a1e:	ab 01       	movw	r20, r22
     a20:	bc 01       	movw	r22, r24
     a22:	e1 2c       	mov	r14, r1
     a24:	f1 2c       	mov	r15, r1
     a26:	0e e1       	ldi	r16, 0x1E	; 30
     a28:	15 e0       	ldi	r17, 0x05	; 5
     a2a:	20 e0       	ldi	r18, 0x00	; 0
     a2c:	80 91 06 05 	lds	r24, 0x0506	; 0x800506 <T_APP_TIMER1>
     a30:	a7 d2       	rcall	.+1358   	; 0xf80 <sw_timer_start>
     a32:	1f 91       	pop	r17
     a34:	0f 91       	pop	r16
     a36:	ff 90       	pop	r15
     a38:	ef 90       	pop	r14
     a3a:	08 95       	ret

00000a3c <app_timer_cb>:
     a3c:	08 dd       	rcall	.-1520   	; 0x44e <usr_app_timer_cb>
     a3e:	e1 cf       	rjmp	.-62     	; 0xa02 <start_timer1>
     a40:	08 95       	ret

00000a42 <stop_timer1>:
     a42:	80 91 06 05 	lds	r24, 0x0506	; 0x800506 <T_APP_TIMER1>
     a46:	06 c4       	rjmp	.+2060   	; 0x1254 <sw_timer_stop>
     a48:	08 95       	ret

00000a4a <transmit_frame>:
     a4a:	4f 92       	push	r4
     a4c:	5f 92       	push	r5
     a4e:	6f 92       	push	r6
     a50:	7f 92       	push	r7
     a52:	8f 92       	push	r8
     a54:	af 92       	push	r10
     a56:	cf 92       	push	r12
     a58:	ef 92       	push	r14
     a5a:	0f 93       	push	r16
     a5c:	1f 93       	push	r17
     a5e:	cf 93       	push	r28
     a60:	df 93       	push	r29
     a62:	cd b7       	in	r28, 0x3d	; 61
     a64:	de b7       	in	r29, 0x3e	; 62
     a66:	a9 e8       	ldi	r26, 0x89	; 137
     a68:	b0 e0       	ldi	r27, 0x00	; 0
     a6a:	ae 19       	sub	r26, r14
     a6c:	b1 09       	sbc	r27, r1
     a6e:	fd 01       	movw	r30, r26
     a70:	e9 5d       	subi	r30, 0xD9	; 217
     a72:	fd 4f       	sbci	r31, 0xFD	; 253
     a74:	3f 01       	movw	r6, r30
     a76:	ee 20       	and	r14, r14
     a78:	79 f0       	breq	.+30     	; 0xa98 <transmit_frame+0x4e>
     a7a:	d8 01       	movw	r26, r16
     a7c:	44 24       	eor	r4, r4
     a7e:	4a 94       	dec	r4
     a80:	4e 0c       	add	r4, r14
     a82:	51 2c       	mov	r5, r1
     a84:	9f ef       	ldi	r25, 0xFF	; 255
     a86:	49 1a       	sub	r4, r25
     a88:	59 0a       	sbc	r5, r25
     a8a:	04 0d       	add	r16, r4
     a8c:	15 1d       	adc	r17, r5
     a8e:	9d 91       	ld	r25, X+
     a90:	91 93       	st	Z+, r25
     a92:	a0 17       	cp	r26, r16
     a94:	b1 07       	cpc	r27, r17
     a96:	d9 f7       	brne	.-10     	; 0xa8e <transmit_frame+0x44>
     a98:	42 30       	cpi	r20, 0x02	; 2
     a9a:	61 f4       	brne	.+24     	; 0xab4 <transmit_frame+0x6a>
     a9c:	3b e0       	ldi	r19, 0x0B	; 11
     a9e:	3e 0d       	add	r19, r14
     aa0:	d3 01       	movw	r26, r6
     aa2:	40 91 8d 05 	lds	r20, 0x058D	; 0x80058d <tal_pib+0xc>
     aa6:	50 91 8e 05 	lds	r21, 0x058E	; 0x80058e <tal_pib+0xd>
     aaa:	5e 93       	st	-X, r21
     aac:	4e 93       	st	-X, r20
     aae:	40 e0       	ldi	r20, 0x00	; 0
     ab0:	50 e8       	ldi	r21, 0x80	; 128
     ab2:	26 c0       	rjmp	.+76     	; 0xb00 <transmit_frame+0xb6>
     ab4:	d3 01       	movw	r26, r6
     ab6:	18 97       	sbiw	r26, 0x08	; 8
     ab8:	31 e1       	ldi	r19, 0x11	; 17
     aba:	3e 0d       	add	r19, r14
     abc:	e1 e8       	ldi	r30, 0x81	; 129
     abe:	f5 e0       	ldi	r31, 0x05	; 5
     ac0:	90 81       	ld	r25, Z
     ac2:	9c 93       	st	X, r25
     ac4:	91 81       	ldd	r25, Z+1	; 0x01
     ac6:	11 96       	adiw	r26, 0x01	; 1
     ac8:	9c 93       	st	X, r25
     aca:	11 97       	sbiw	r26, 0x01	; 1
     acc:	92 81       	ldd	r25, Z+2	; 0x02
     ace:	12 96       	adiw	r26, 0x02	; 2
     ad0:	9c 93       	st	X, r25
     ad2:	12 97       	sbiw	r26, 0x02	; 2
     ad4:	93 81       	ldd	r25, Z+3	; 0x03
     ad6:	13 96       	adiw	r26, 0x03	; 3
     ad8:	9c 93       	st	X, r25
     ada:	13 97       	sbiw	r26, 0x03	; 3
     adc:	94 81       	ldd	r25, Z+4	; 0x04
     ade:	14 96       	adiw	r26, 0x04	; 4
     ae0:	9c 93       	st	X, r25
     ae2:	14 97       	sbiw	r26, 0x04	; 4
     ae4:	95 81       	ldd	r25, Z+5	; 0x05
     ae6:	15 96       	adiw	r26, 0x05	; 5
     ae8:	9c 93       	st	X, r25
     aea:	15 97       	sbiw	r26, 0x05	; 5
     aec:	96 81       	ldd	r25, Z+6	; 0x06
     aee:	16 96       	adiw	r26, 0x06	; 6
     af0:	9c 93       	st	X, r25
     af2:	16 97       	sbiw	r26, 0x06	; 6
     af4:	97 81       	ldd	r25, Z+7	; 0x07
     af6:	17 96       	adiw	r26, 0x07	; 7
     af8:	9c 93       	st	X, r25
     afa:	17 97       	sbiw	r26, 0x07	; 7
     afc:	40 e0       	ldi	r20, 0x00	; 0
     afe:	50 ec       	ldi	r21, 0xC0	; 192
     b00:	82 30       	cpi	r24, 0x02	; 2
     b02:	59 f4       	brne	.+22     	; 0xb1a <transmit_frame+0xd0>
     b04:	fb 01       	movw	r30, r22
     b06:	80 81       	ld	r24, Z
     b08:	91 81       	ldd	r25, Z+1	; 0x01
     b0a:	fd 01       	movw	r30, r26
     b0c:	92 93       	st	-Z, r25
     b0e:	82 93       	st	-Z, r24
     b10:	3f 01       	movw	r6, r30
     b12:	ca 01       	movw	r24, r20
     b14:	80 64       	ori	r24, 0x40	; 64
     b16:	98 60       	ori	r25, 0x08	; 8
     b18:	0f c0       	rjmp	.+30     	; 0xb38 <transmit_frame+0xee>
     b1a:	3d 01       	movw	r6, r26
     b1c:	f8 e0       	ldi	r31, 0x08	; 8
     b1e:	6f 1a       	sub	r6, r31
     b20:	71 08       	sbc	r7, r1
     b22:	3a 5f       	subi	r19, 0xFA	; 250
     b24:	88 e0       	ldi	r24, 0x08	; 8
     b26:	fb 01       	movw	r30, r22
     b28:	d3 01       	movw	r26, r6
     b2a:	01 90       	ld	r0, Z+
     b2c:	0d 92       	st	X+, r0
     b2e:	8a 95       	dec	r24
     b30:	e1 f7       	brne	.-8      	; 0xb2a <transmit_frame+0xe0>
     b32:	ca 01       	movw	r24, r20
     b34:	80 64       	ori	r24, 0x40	; 64
     b36:	9c 60       	ori	r25, 0x0C	; 12
     b38:	4e ef       	ldi	r20, 0xFE	; 254
     b3a:	5a ec       	ldi	r21, 0xCA	; 202
     b3c:	f3 01       	movw	r30, r6
     b3e:	32 97       	sbiw	r30, 0x02	; 2
     b40:	51 83       	std	Z+1, r21	; 0x01
     b42:	40 83       	st	Z, r20
     b44:	31 97       	sbiw	r30, 0x01	; 1
     b46:	20 83       	st	Z, r18
     b48:	c1 10       	cpse	r12, r1
     b4a:	02 c0       	rjmp	.+4      	; 0xb50 <transmit_frame+0x106>
     b4c:	81 60       	ori	r24, 0x01	; 1
     b4e:	01 c0       	rjmp	.+2      	; 0xb52 <transmit_frame+0x108>
     b50:	81 62       	ori	r24, 0x21	; 33
     b52:	f3 01       	movw	r30, r6
     b54:	35 97       	sbiw	r30, 0x05	; 5
     b56:	91 83       	std	Z+1, r25	; 0x01
     b58:	80 83       	st	Z, r24
     b5a:	d3 01       	movw	r26, r6
     b5c:	16 97       	sbiw	r26, 0x06	; 6
     b5e:	3c 93       	st	X, r19
     b60:	b0 93 2f 02 	sts	0x022F, r27	; 0x80022f <storage_buffer+0x8>
     b64:	a0 93 2e 02 	sts	0x022E, r26	; 0x80022e <storage_buffer+0x7>
     b68:	48 2d       	mov	r20, r8
     b6a:	6a 2d       	mov	r22, r10
     b6c:	87 e2       	ldi	r24, 0x27	; 39
     b6e:	92 e0       	ldi	r25, 0x02	; 2
     b70:	0e 94 75 13 	call	0x26ea	; 0x26ea <tal_tx_frame>
     b74:	df 91       	pop	r29
     b76:	cf 91       	pop	r28
     b78:	1f 91       	pop	r17
     b7a:	0f 91       	pop	r16
     b7c:	ef 90       	pop	r14
     b7e:	cf 90       	pop	r12
     b80:	af 90       	pop	r10
     b82:	8f 90       	pop	r8
     b84:	7f 90       	pop	r7
     b86:	6f 90       	pop	r6
     b88:	5f 90       	pop	r5
     b8a:	4f 90       	pop	r4
     b8c:	08 95       	ret

00000b8e <transmit_sample_frame>:
     b8e:	8f 92       	push	r8
     b90:	af 92       	push	r10
     b92:	cf 92       	push	r12
     b94:	ef 92       	push	r14
     b96:	0f 93       	push	r16
     b98:	1f 93       	push	r17
     b9a:	cf 93       	push	r28
     b9c:	df 93       	push	r29
     b9e:	1f 92       	push	r1
     ba0:	1f 92       	push	r1
     ba2:	cd b7       	in	r28, 0x3d	; 61
     ba4:	de b7       	in	r29, 0x3e	; 62
     ba6:	20 91 3a 05 	lds	r18, 0x053A	; 0x80053a <DST_ADDR_>
     baa:	30 91 3b 05 	lds	r19, 0x053B	; 0x80053b <DST_ADDR_+0x1>
     bae:	3a 83       	std	Y+2, r19	; 0x02
     bb0:	29 83       	std	Y+1, r18	; 0x01
     bb2:	20 91 25 02 	lds	r18, 0x0225	; 0x800225 <seq_num.3071>
     bb6:	30 91 26 02 	lds	r19, 0x0226	; 0x800226 <seq_num.3071+0x1>
     bba:	a9 01       	movw	r20, r18
     bbc:	4f 5f       	subi	r20, 0xFF	; 255
     bbe:	5f 4f       	sbci	r21, 0xFF	; 255
     bc0:	50 93 26 02 	sts	0x0226, r21	; 0x800226 <seq_num.3071+0x1>
     bc4:	40 93 25 02 	sts	0x0225, r20	; 0x800225 <seq_num.3071>
     bc8:	81 2c       	mov	r8, r1
     bca:	68 94       	set
     bcc:	aa 24       	eor	r10, r10
     bce:	a1 f8       	bld	r10, 1
     bd0:	c1 2c       	mov	r12, r1
     bd2:	e6 2e       	mov	r14, r22
     bd4:	8c 01       	movw	r16, r24
     bd6:	42 e0       	ldi	r20, 0x02	; 2
     bd8:	be 01       	movw	r22, r28
     bda:	6f 5f       	subi	r22, 0xFF	; 255
     bdc:	7f 4f       	sbci	r23, 0xFF	; 255
     bde:	82 e0       	ldi	r24, 0x02	; 2
     be0:	34 df       	rcall	.-408    	; 0xa4a <transmit_frame>
     be2:	0f 90       	pop	r0
     be4:	0f 90       	pop	r0
     be6:	df 91       	pop	r29
     be8:	cf 91       	pop	r28
     bea:	1f 91       	pop	r17
     bec:	0f 91       	pop	r16
     bee:	ef 90       	pop	r14
     bf0:	cf 90       	pop	r12
     bf2:	af 90       	pop	r10
     bf4:	8f 90       	pop	r8
     bf6:	08 95       	ret

00000bf8 <init_data_reception>:
     bf8:	86 e0       	ldi	r24, 0x06	; 6
     bfa:	0c 94 a1 12 	jmp	0x2542	; 0x2542 <tal_rx_enable>
     bfe:	08 95       	ret

00000c00 <wireless_init>:
     c00:	cf 93       	push	r28
     c02:	df 93       	push	r29
     c04:	00 d0       	rcall	.+0      	; 0xc06 <wireless_init+0x6>
     c06:	00 d0       	rcall	.+0      	; 0xc08 <wireless_init+0x8>
     c08:	cd b7       	in	r28, 0x3d	; 61
     c0a:	de b7       	in	r29, 0x3e	; 62
     c0c:	42 d0       	rcall	.+132    	; 0xc92 <sysclk_init>
     c0e:	34 d0       	rcall	.+104    	; 0xc78 <board_init>
     c10:	25 d4       	rcall	.+2122   	; 0x145c <sw_timer_init>
     c12:	f9 d7       	rcall	.+4082   	; 0x1c06 <tal_init>
     c14:	81 11       	cpse	r24, r1
     c16:	ff cf       	rjmp	.-2      	; 0xc16 <wireless_init+0x16>
     c18:	78 94       	sei
     c1a:	1a 82       	std	Y+2, r1	; 0x02
     c1c:	19 82       	std	Y+1, r1	; 0x01
     c1e:	8e ef       	ldi	r24, 0xFE	; 254
     c20:	9a ec       	ldi	r25, 0xCA	; 202
     c22:	9c 83       	std	Y+4, r25	; 0x04
     c24:	8b 83       	std	Y+3, r24	; 0x03
     c26:	8c e0       	ldi	r24, 0x0C	; 12
     c28:	8d 83       	std	Y+5, r24	; 0x05
     c2a:	1e 82       	std	Y+6, r1	; 0x06
     c2c:	be 01       	movw	r22, r28
     c2e:	6f 5f       	subi	r22, 0xFF	; 255
     c30:	7f 4f       	sbci	r23, 0xFF	; 255
     c32:	83 e5       	ldi	r24, 0x53	; 83
     c34:	0e 94 ce 10 	call	0x219c	; 0x219c <tal_pib_set>
     c38:	be 01       	movw	r22, r28
     c3a:	6d 5f       	subi	r22, 0xFD	; 253
     c3c:	7f 4f       	sbci	r23, 0xFF	; 255
     c3e:	80 e5       	ldi	r24, 0x50	; 80
     c40:	0e 94 ce 10 	call	0x219c	; 0x219c <tal_pib_set>
     c44:	be 01       	movw	r22, r28
     c46:	6b 5f       	subi	r22, 0xFB	; 251
     c48:	7f 4f       	sbci	r23, 0xFF	; 255
     c4a:	80 e0       	ldi	r24, 0x00	; 0
     c4c:	0e 94 ce 10 	call	0x219c	; 0x219c <tal_pib_set>
     c50:	be 01       	movw	r22, r28
     c52:	6a 5f       	subi	r22, 0xFA	; 250
     c54:	7f 4f       	sbci	r23, 0xFF	; 255
     c56:	84 e0       	ldi	r24, 0x04	; 4
     c58:	0e 94 ce 10 	call	0x219c	; 0x219c <tal_pib_set>
     c5c:	62 e0       	ldi	r22, 0x02	; 2
     c5e:	80 e0       	ldi	r24, 0x00	; 0
     c60:	0e 94 b1 13 	call	0x2762	; 0x2762 <tal_ant_div_config>
     c64:	c9 df       	rcall	.-110    	; 0xbf8 <init_data_reception>
     c66:	26 96       	adiw	r28, 0x06	; 6
     c68:	0f b6       	in	r0, 0x3f	; 63
     c6a:	f8 94       	cli
     c6c:	de bf       	out	0x3e, r29	; 62
     c6e:	0f be       	out	0x3f, r0	; 63
     c70:	cd bf       	out	0x3d, r28	; 61
     c72:	df 91       	pop	r29
     c74:	cf 91       	pop	r28
     c76:	08 95       	ret

00000c78 <board_init>:
     c78:	8d b1       	in	r24, 0x0d	; 13
     c7a:	8e 7f       	andi	r24, 0xFE	; 254
     c7c:	9e b1       	in	r25, 0x0e	; 14
     c7e:	5e 9a       	sbi	0x0b, 6	; 11
     c80:	56 9a       	sbi	0x0a, 6	; 10
     c82:	a2 9a       	sbi	0x14, 2	; 20
     c84:	9a 9a       	sbi	0x13, 2	; 19
     c86:	95 60       	ori	r25, 0x05	; 5
     c88:	9e b9       	out	0x0e, r25	; 14
     c8a:	84 60       	ori	r24, 0x04	; 4
     c8c:	8d b9       	out	0x0d, r24	; 13
     c8e:	08 95       	ret

00000c90 <modules_init>:
     c90:	08 95       	ret

00000c92 <sysclk_init>:
     c92:	cf 93       	push	r28
     c94:	df 93       	push	r29
     c96:	1f 92       	push	r1
     c98:	cd b7       	in	r28, 0x3d	; 61
     c9a:	de b7       	in	r29, 0x3e	; 62
     c9c:	8f ef       	ldi	r24, 0xFF	; 255
     c9e:	80 93 64 00 	sts	0x0064, r24	; 0x800064 <__TEXT_REGION_LENGTH__+0x7c0064>
     ca2:	80 93 65 00 	sts	0x0065, r24	; 0x800065 <__TEXT_REGION_LENGTH__+0x7c0065>
     ca6:	8f b7       	in	r24, 0x3f	; 63
     ca8:	89 83       	std	Y+1, r24	; 0x01
     caa:	f8 94       	cli
     cac:	89 81       	ldd	r24, Y+1	; 0x01
     cae:	5f 93       	push	r21
     cb0:	50 e8       	ldi	r21, 0x80	; 128
     cb2:	50 93 61 00 	sts	0x0061, r21	; 0x800061 <__TEXT_REGION_LENGTH__+0x7c0061>
     cb6:	50 e0       	ldi	r21, 0x00	; 0
     cb8:	50 93 61 00 	sts	0x0061, r21	; 0x800061 <__TEXT_REGION_LENGTH__+0x7c0061>
     cbc:	5f 91       	pop	r21
     cbe:	8f bf       	out	0x3f, r24	; 63
     cc0:	0f 90       	pop	r0
     cc2:	df 91       	pop	r29
     cc4:	cf 91       	pop	r28
     cc6:	08 95       	ret

00000cc8 <sysclk_enable_module>:
     cc8:	cf 93       	push	r28
     cca:	df 93       	push	r29
     ccc:	1f 92       	push	r1
     cce:	cd b7       	in	r28, 0x3d	; 61
     cd0:	de b7       	in	r29, 0x3e	; 62
     cd2:	9f b7       	in	r25, 0x3f	; 63
     cd4:	99 83       	std	Y+1, r25	; 0x01
     cd6:	f8 94       	cli
     cd8:	99 81       	ldd	r25, Y+1	; 0x01
     cda:	82 30       	cpi	r24, 0x02	; 2
     cdc:	40 f4       	brcc	.+16     	; 0xcee <sysclk_enable_module+0x26>
     cde:	e8 2f       	mov	r30, r24
     ce0:	f0 e0       	ldi	r31, 0x00	; 0
     ce2:	ec 59       	subi	r30, 0x9C	; 156
     ce4:	ff 4f       	sbci	r31, 0xFF	; 255
     ce6:	60 95       	com	r22
     ce8:	80 81       	ld	r24, Z
     cea:	68 23       	and	r22, r24
     cec:	60 83       	st	Z, r22
     cee:	9f bf       	out	0x3f, r25	; 63
     cf0:	0f 90       	pop	r0
     cf2:	df 91       	pop	r29
     cf4:	cf 91       	pop	r28
     cf6:	08 95       	ret

00000cf8 <sysclk_disable_module>:
     cf8:	cf 93       	push	r28
     cfa:	df 93       	push	r29
     cfc:	1f 92       	push	r1
     cfe:	cd b7       	in	r28, 0x3d	; 61
     d00:	de b7       	in	r29, 0x3e	; 62
     d02:	9f b7       	in	r25, 0x3f	; 63
     d04:	99 83       	std	Y+1, r25	; 0x01
     d06:	f8 94       	cli
     d08:	99 81       	ldd	r25, Y+1	; 0x01
     d0a:	82 30       	cpi	r24, 0x02	; 2
     d0c:	38 f4       	brcc	.+14     	; 0xd1c <sysclk_disable_module+0x24>
     d0e:	e8 2f       	mov	r30, r24
     d10:	f0 e0       	ldi	r31, 0x00	; 0
     d12:	ec 59       	subi	r30, 0x9C	; 156
     d14:	ff 4f       	sbci	r31, 0xFF	; 255
     d16:	80 81       	ld	r24, Z
     d18:	68 2b       	or	r22, r24
     d1a:	60 83       	st	Z, r22
     d1c:	9f bf       	out	0x3f, r25	; 63
     d1e:	0f 90       	pop	r0
     d20:	df 91       	pop	r29
     d22:	cf 91       	pop	r28
     d24:	08 95       	ret

00000d26 <hw_expiry_cb>:
     d26:	80 91 b6 02 	lds	r24, 0x02B6	; 0x8002b6 <running_timers>
     d2a:	88 23       	and	r24, r24
     d2c:	19 f0       	breq	.+6      	; 0xd34 <hw_expiry_cb+0xe>
     d2e:	81 e0       	ldi	r24, 0x01	; 1
     d30:	80 93 78 05 	sts	0x0578, r24	; 0x800578 <timer_trigger>
     d34:	08 95       	ret

00000d36 <hw_overflow_cb>:
     d36:	1f 93       	push	r17
     d38:	cf 93       	push	r28
     d3a:	df 93       	push	r29
     d3c:	1f 92       	push	r1
     d3e:	cd b7       	in	r28, 0x3d	; 61
     d40:	de b7       	in	r29, 0x3e	; 62
     d42:	80 91 44 05 	lds	r24, 0x0544	; 0x800544 <sys_time>
     d46:	90 91 45 05 	lds	r25, 0x0545	; 0x800545 <sys_time+0x1>
     d4a:	01 96       	adiw	r24, 0x01	; 1
     d4c:	90 93 45 05 	sts	0x0545, r25	; 0x800545 <sys_time+0x1>
     d50:	80 93 44 05 	sts	0x0544, r24	; 0x800544 <sys_time>
     d54:	8f b7       	in	r24, 0x3f	; 63
     d56:	89 83       	std	Y+1, r24	; 0x01
     d58:	f8 94       	cli
     d5a:	19 81       	ldd	r17, Y+1	; 0x01
     d5c:	80 91 b5 02 	lds	r24, 0x02B5	; 0x8002b5 <running_timer_queue_head>
     d60:	8f 3f       	cpi	r24, 0xFF	; 255
     d62:	e9 f1       	breq	.+122    	; 0xdde <hw_overflow_cb+0xa8>
     d64:	90 e0       	ldi	r25, 0x00	; 0
     d66:	fc 01       	movw	r30, r24
     d68:	ee 0f       	add	r30, r30
     d6a:	ff 1f       	adc	r31, r31
     d6c:	9c 01       	movw	r18, r24
     d6e:	22 0f       	add	r18, r18
     d70:	33 1f       	adc	r19, r19
     d72:	22 0f       	add	r18, r18
     d74:	33 1f       	adc	r19, r19
     d76:	22 0f       	add	r18, r18
     d78:	33 1f       	adc	r19, r19
     d7a:	e2 0f       	add	r30, r18
     d7c:	f3 1f       	adc	r31, r19
     d7e:	ea 5b       	subi	r30, 0xBA	; 186
     d80:	fa 4f       	sbci	r31, 0xFA	; 250
     d82:	21 85       	ldd	r18, Z+9	; 0x09
     d84:	21 11       	cpse	r18, r1
     d86:	2b c0       	rjmp	.+86     	; 0xdde <hw_overflow_cb+0xa8>
     d88:	fc 01       	movw	r30, r24
     d8a:	ee 0f       	add	r30, r30
     d8c:	ff 1f       	adc	r31, r31
     d8e:	88 0f       	add	r24, r24
     d90:	99 1f       	adc	r25, r25
     d92:	88 0f       	add	r24, r24
     d94:	99 1f       	adc	r25, r25
     d96:	88 0f       	add	r24, r24
     d98:	99 1f       	adc	r25, r25
     d9a:	e8 0f       	add	r30, r24
     d9c:	f9 1f       	adc	r31, r25
     d9e:	ea 5b       	subi	r30, 0xBA	; 186
     da0:	fa 4f       	sbci	r31, 0xFA	; 250
     da2:	80 81       	ld	r24, Z
     da4:	91 81       	ldd	r25, Z+1	; 0x01
     da6:	a2 81       	ldd	r26, Z+2	; 0x02
     da8:	b3 81       	ldd	r27, Z+3	; 0x03
     daa:	20 91 44 05 	lds	r18, 0x0544	; 0x800544 <sys_time>
     dae:	30 91 45 05 	lds	r19, 0x0545	; 0x800545 <sys_time+0x1>
     db2:	2a 17       	cp	r18, r26
     db4:	3b 07       	cpc	r19, r27
     db6:	99 f4       	brne	.+38     	; 0xdde <hw_overflow_cb+0xa8>
     db8:	82 da       	rcall	.-2812   	; 0x2be <common_tc_delay>
     dba:	80 91 b5 02 	lds	r24, 0x02B5	; 0x8002b5 <running_timer_queue_head>
     dbe:	90 e0       	ldi	r25, 0x00	; 0
     dc0:	fc 01       	movw	r30, r24
     dc2:	ee 0f       	add	r30, r30
     dc4:	ff 1f       	adc	r31, r31
     dc6:	88 0f       	add	r24, r24
     dc8:	99 1f       	adc	r25, r25
     dca:	88 0f       	add	r24, r24
     dcc:	99 1f       	adc	r25, r25
     dce:	88 0f       	add	r24, r24
     dd0:	99 1f       	adc	r25, r25
     dd2:	e8 0f       	add	r30, r24
     dd4:	f9 1f       	adc	r31, r25
     dd6:	ea 5b       	subi	r30, 0xBA	; 186
     dd8:	fa 4f       	sbci	r31, 0xFA	; 250
     dda:	81 e0       	ldi	r24, 0x01	; 1
     ddc:	81 87       	std	Z+9, r24	; 0x09
     dde:	1f bf       	out	0x3f, r17	; 63
     de0:	0f 90       	pop	r0
     de2:	df 91       	pop	r29
     de4:	cf 91       	pop	r28
     de6:	1f 91       	pop	r17
     de8:	08 95       	ret

00000dea <load_hw_timer>:
     dea:	0f 93       	push	r16
     dec:	1f 93       	push	r17
     dee:	cf 93       	push	r28
     df0:	df 93       	push	r29
     df2:	c8 2f       	mov	r28, r24
     df4:	8f 3f       	cpi	r24, 0xFF	; 255
     df6:	09 f4       	brne	.+2      	; 0xdfa <load_hw_timer+0x10>
     df8:	60 c0       	rjmp	.+192    	; 0xeba <load_hw_timer+0xd0>
     dfa:	00 91 44 05 	lds	r16, 0x0544	; 0x800544 <sys_time>
     dfe:	10 91 45 05 	lds	r17, 0x0545	; 0x800545 <sys_time+0x1>
     e02:	1a da       	rcall	.-3020   	; 0x238 <common_tc_read_count>
     e04:	40 91 44 05 	lds	r20, 0x0544	; 0x800544 <sys_time>
     e08:	50 91 45 05 	lds	r21, 0x0545	; 0x800545 <sys_time+0x1>
     e0c:	04 17       	cp	r16, r20
     e0e:	15 07       	cpc	r17, r21
     e10:	a1 f7       	brne	.-24     	; 0xdfa <load_hw_timer+0x10>
     e12:	d0 e0       	ldi	r29, 0x00	; 0
     e14:	60 e0       	ldi	r22, 0x00	; 0
     e16:	70 e0       	ldi	r23, 0x00	; 0
     e18:	fe 01       	movw	r30, r28
     e1a:	ee 0f       	add	r30, r30
     e1c:	ff 1f       	adc	r31, r31
     e1e:	9e 01       	movw	r18, r28
     e20:	22 0f       	add	r18, r18
     e22:	33 1f       	adc	r19, r19
     e24:	22 0f       	add	r18, r18
     e26:	33 1f       	adc	r19, r19
     e28:	22 0f       	add	r18, r18
     e2a:	33 1f       	adc	r19, r19
     e2c:	e2 0f       	add	r30, r18
     e2e:	f3 1f       	adc	r31, r19
     e30:	ea 5b       	subi	r30, 0xBA	; 186
     e32:	fa 4f       	sbci	r31, 0xFA	; 250
     e34:	ba 01       	movw	r22, r20
     e36:	55 27       	eor	r21, r21
     e38:	44 27       	eor	r20, r20
     e3a:	a0 e0       	ldi	r26, 0x00	; 0
     e3c:	b0 e0       	ldi	r27, 0x00	; 0
     e3e:	48 2b       	or	r20, r24
     e40:	59 2b       	or	r21, r25
     e42:	6a 2b       	or	r22, r26
     e44:	7b 2b       	or	r23, r27
     e46:	80 81       	ld	r24, Z
     e48:	91 81       	ldd	r25, Z+1	; 0x01
     e4a:	a2 81       	ldd	r26, Z+2	; 0x02
     e4c:	b3 81       	ldd	r27, Z+3	; 0x03
     e4e:	84 1b       	sub	r24, r20
     e50:	95 0b       	sbc	r25, r21
     e52:	a6 0b       	sbc	r26, r22
     e54:	b7 0b       	sbc	r27, r23
     e56:	8f 3f       	cpi	r24, 0xFF	; 255
     e58:	2f ef       	ldi	r18, 0xFF	; 255
     e5a:	92 07       	cpc	r25, r18
     e5c:	a2 07       	cpc	r26, r18
     e5e:	2f e7       	ldi	r18, 0x7F	; 127
     e60:	b2 07       	cpc	r27, r18
     e62:	38 f5       	brcc	.+78     	; 0xeb2 <load_hw_timer+0xc8>
     e64:	9e 01       	movw	r18, r28
     e66:	22 0f       	add	r18, r18
     e68:	33 1f       	adc	r19, r19
     e6a:	22 0f       	add	r18, r18
     e6c:	33 1f       	adc	r19, r19
     e6e:	22 0f       	add	r18, r18
     e70:	33 1f       	adc	r19, r19
     e72:	fe 01       	movw	r30, r28
     e74:	ee 0f       	add	r30, r30
     e76:	ff 1f       	adc	r31, r31
     e78:	e2 0f       	add	r30, r18
     e7a:	f3 1f       	adc	r31, r19
     e7c:	ea 5b       	subi	r30, 0xBA	; 186
     e7e:	fa 4f       	sbci	r31, 0xFA	; 250
     e80:	21 85       	ldd	r18, Z+9	; 0x09
     e82:	21 11       	cpse	r18, r1
     e84:	1b c0       	rjmp	.+54     	; 0xebc <load_hw_timer+0xd2>
     e86:	00 97       	sbiw	r24, 0x00	; 0
     e88:	21 e0       	ldi	r18, 0x01	; 1
     e8a:	a2 07       	cpc	r26, r18
     e8c:	b1 05       	cpc	r27, r1
     e8e:	b0 f4       	brcc	.+44     	; 0xebc <load_hw_timer+0xd2>
     e90:	16 da       	rcall	.-3028   	; 0x2be <common_tc_delay>
     e92:	ce 01       	movw	r24, r28
     e94:	88 0f       	add	r24, r24
     e96:	99 1f       	adc	r25, r25
     e98:	cc 0f       	add	r28, r28
     e9a:	dd 1f       	adc	r29, r29
     e9c:	cc 0f       	add	r28, r28
     e9e:	dd 1f       	adc	r29, r29
     ea0:	cc 0f       	add	r28, r28
     ea2:	dd 1f       	adc	r29, r29
     ea4:	c8 0f       	add	r28, r24
     ea6:	d9 1f       	adc	r29, r25
     ea8:	ca 5b       	subi	r28, 0xBA	; 186
     eaa:	da 4f       	sbci	r29, 0xFA	; 250
     eac:	81 e0       	ldi	r24, 0x01	; 1
     eae:	89 87       	std	Y+9, r24	; 0x09
     eb0:	05 c0       	rjmp	.+10     	; 0xebc <load_hw_timer+0xd2>
     eb2:	81 e0       	ldi	r24, 0x01	; 1
     eb4:	80 93 78 05 	sts	0x0578, r24	; 0x800578 <timer_trigger>
     eb8:	01 c0       	rjmp	.+2      	; 0xebc <load_hw_timer+0xd2>
     eba:	e6 d9       	rcall	.-3124   	; 0x288 <common_tc_compare_stop>
     ebc:	df 91       	pop	r29
     ebe:	cf 91       	pop	r28
     ec0:	1f 91       	pop	r17
     ec2:	0f 91       	pop	r16
     ec4:	08 95       	ret

00000ec6 <internal_timer_handler>:
     ec6:	80 91 78 05 	lds	r24, 0x0578	; 0x800578 <timer_trigger>
     eca:	88 23       	and	r24, r24
     ecc:	09 f4       	brne	.+2      	; 0xed0 <internal_timer_handler+0xa>
     ece:	57 c0       	rjmp	.+174    	; 0xf7e <internal_timer_handler+0xb8>
     ed0:	10 92 78 05 	sts	0x0578, r1	; 0x800578 <timer_trigger>
     ed4:	80 91 b6 02 	lds	r24, 0x02B6	; 0x8002b6 <running_timers>
     ed8:	88 23       	and	r24, r24
     eda:	09 f4       	brne	.+2      	; 0xede <internal_timer_handler+0x18>
     edc:	50 c0       	rjmp	.+160    	; 0xf7e <internal_timer_handler+0xb8>
     ede:	80 91 b4 02 	lds	r24, 0x02B4	; 0x8002b4 <expired_timer_queue_head>
     ee2:	8f 3f       	cpi	r24, 0xFF	; 255
     ee4:	59 f4       	brne	.+22     	; 0xefc <internal_timer_handler+0x36>
     ee6:	80 91 b3 02 	lds	r24, 0x02B3	; 0x8002b3 <expired_timer_queue_tail>
     eea:	8f 3f       	cpi	r24, 0xFF	; 255
     eec:	39 f4       	brne	.+14     	; 0xefc <internal_timer_handler+0x36>
     eee:	80 91 b5 02 	lds	r24, 0x02B5	; 0x8002b5 <running_timer_queue_head>
     ef2:	80 93 b3 02 	sts	0x02B3, r24	; 0x8002b3 <expired_timer_queue_tail>
     ef6:	80 93 b4 02 	sts	0x02B4, r24	; 0x8002b4 <expired_timer_queue_head>
     efa:	15 c0       	rjmp	.+42     	; 0xf26 <internal_timer_handler+0x60>
     efc:	20 91 b5 02 	lds	r18, 0x02B5	; 0x8002b5 <running_timer_queue_head>
     f00:	80 91 b3 02 	lds	r24, 0x02B3	; 0x8002b3 <expired_timer_queue_tail>
     f04:	90 e0       	ldi	r25, 0x00	; 0
     f06:	fc 01       	movw	r30, r24
     f08:	ee 0f       	add	r30, r30
     f0a:	ff 1f       	adc	r31, r31
     f0c:	88 0f       	add	r24, r24
     f0e:	99 1f       	adc	r25, r25
     f10:	88 0f       	add	r24, r24
     f12:	99 1f       	adc	r25, r25
     f14:	88 0f       	add	r24, r24
     f16:	99 1f       	adc	r25, r25
     f18:	e8 0f       	add	r30, r24
     f1a:	f9 1f       	adc	r31, r25
     f1c:	ea 5b       	subi	r30, 0xBA	; 186
     f1e:	fa 4f       	sbci	r31, 0xFA	; 250
     f20:	20 87       	std	Z+8, r18	; 0x08
     f22:	20 93 b3 02 	sts	0x02B3, r18	; 0x8002b3 <expired_timer_queue_tail>
     f26:	80 91 b5 02 	lds	r24, 0x02B5	; 0x8002b5 <running_timer_queue_head>
     f2a:	90 e0       	ldi	r25, 0x00	; 0
     f2c:	fc 01       	movw	r30, r24
     f2e:	ee 0f       	add	r30, r30
     f30:	ff 1f       	adc	r31, r31
     f32:	88 0f       	add	r24, r24
     f34:	99 1f       	adc	r25, r25
     f36:	88 0f       	add	r24, r24
     f38:	99 1f       	adc	r25, r25
     f3a:	88 0f       	add	r24, r24
     f3c:	99 1f       	adc	r25, r25
     f3e:	e8 0f       	add	r30, r24
     f40:	f9 1f       	adc	r31, r25
     f42:	ea 5b       	subi	r30, 0xBA	; 186
     f44:	fa 4f       	sbci	r31, 0xFA	; 250
     f46:	80 85       	ldd	r24, Z+8	; 0x08
     f48:	80 93 b5 02 	sts	0x02B5, r24	; 0x8002b5 <running_timer_queue_head>
     f4c:	20 91 b3 02 	lds	r18, 0x02B3	; 0x8002b3 <expired_timer_queue_tail>
     f50:	30 e0       	ldi	r19, 0x00	; 0
     f52:	f9 01       	movw	r30, r18
     f54:	ee 0f       	add	r30, r30
     f56:	ff 1f       	adc	r31, r31
     f58:	22 0f       	add	r18, r18
     f5a:	33 1f       	adc	r19, r19
     f5c:	22 0f       	add	r18, r18
     f5e:	33 1f       	adc	r19, r19
     f60:	22 0f       	add	r18, r18
     f62:	33 1f       	adc	r19, r19
     f64:	e2 0f       	add	r30, r18
     f66:	f3 1f       	adc	r31, r19
     f68:	ea 5b       	subi	r30, 0xBA	; 186
     f6a:	fa 4f       	sbci	r31, 0xFA	; 250
     f6c:	9f ef       	ldi	r25, 0xFF	; 255
     f6e:	90 87       	std	Z+8, r25	; 0x08
     f70:	90 91 b6 02 	lds	r25, 0x02B6	; 0x8002b6 <running_timers>
     f74:	91 50       	subi	r25, 0x01	; 1
     f76:	90 93 b6 02 	sts	0x02B6, r25	; 0x8002b6 <running_timers>
     f7a:	91 11       	cpse	r25, r1
     f7c:	36 cf       	rjmp	.-404    	; 0xdea <load_hw_timer>
     f7e:	08 95       	ret

00000f80 <sw_timer_start>:
     f80:	2f 92       	push	r2
     f82:	3f 92       	push	r3
     f84:	4f 92       	push	r4
     f86:	5f 92       	push	r5
     f88:	6f 92       	push	r6
     f8a:	7f 92       	push	r7
     f8c:	8f 92       	push	r8
     f8e:	9f 92       	push	r9
     f90:	af 92       	push	r10
     f92:	bf 92       	push	r11
     f94:	cf 92       	push	r12
     f96:	df 92       	push	r13
     f98:	ef 92       	push	r14
     f9a:	ff 92       	push	r15
     f9c:	0f 93       	push	r16
     f9e:	1f 93       	push	r17
     fa0:	cf 93       	push	r28
     fa2:	df 93       	push	r29
     fa4:	cd b7       	in	r28, 0x3d	; 61
     fa6:	de b7       	in	r29, 0x3e	; 62
     fa8:	27 97       	sbiw	r28, 0x07	; 7
     faa:	0f b6       	in	r0, 0x3f	; 63
     fac:	f8 94       	cli
     fae:	de bf       	out	0x3e, r29	; 62
     fb0:	0f be       	out	0x3f, r0	; 63
     fb2:	cd bf       	out	0x3d, r28	; 61
     fb4:	38 2e       	mov	r3, r24
     fb6:	4a 01       	movw	r8, r20
     fb8:	5b 01       	movw	r10, r22
     fba:	22 2e       	mov	r2, r18
     fbc:	ff 82       	std	Y+7, r15	; 0x07
     fbe:	ee 82       	std	Y+6, r14	; 0x06
     fc0:	68 94       	set
     fc2:	44 24       	eor	r4, r4
     fc4:	42 f8       	bld	r4, 2
     fc6:	48 16       	cp	r4, r24
     fc8:	08 f4       	brcc	.+2      	; 0xfcc <sw_timer_start+0x4c>
     fca:	ff c0       	rjmp	.+510    	; 0x11ca <sw_timer_start+0x24a>
     fcc:	01 15       	cp	r16, r1
     fce:	11 05       	cpc	r17, r1
     fd0:	09 f4       	brne	.+2      	; 0xfd4 <sw_timer_start+0x54>
     fd2:	fd c0       	rjmp	.+506    	; 0x11ce <sw_timer_start+0x24e>
     fd4:	c8 2e       	mov	r12, r24
     fd6:	d1 2c       	mov	r13, r1
     fd8:	f6 01       	movw	r30, r12
     fda:	ee 0f       	add	r30, r30
     fdc:	ff 1f       	adc	r31, r31
     fde:	c6 01       	movw	r24, r12
     fe0:	88 0f       	add	r24, r24
     fe2:	99 1f       	adc	r25, r25
     fe4:	88 0f       	add	r24, r24
     fe6:	99 1f       	adc	r25, r25
     fe8:	88 0f       	add	r24, r24
     fea:	99 1f       	adc	r25, r25
     fec:	e8 0f       	add	r30, r24
     fee:	f9 1f       	adc	r31, r25
     ff0:	ea 5b       	subi	r30, 0xBA	; 186
     ff2:	fa 4f       	sbci	r31, 0xFA	; 250
     ff4:	84 81       	ldd	r24, Z+4	; 0x04
     ff6:	95 81       	ldd	r25, Z+5	; 0x05
     ff8:	89 2b       	or	r24, r25
     ffa:	09 f0       	breq	.+2      	; 0xffe <sw_timer_start+0x7e>
     ffc:	ea c0       	rjmp	.+468    	; 0x11d2 <sw_timer_start+0x252>
     ffe:	e0 90 44 05 	lds	r14, 0x0544	; 0x800544 <sys_time>
    1002:	f0 90 45 05 	lds	r15, 0x0545	; 0x800545 <sys_time+0x1>
    1006:	18 d9       	rcall	.-3536   	; 0x238 <common_tc_read_count>
    1008:	40 91 44 05 	lds	r20, 0x0544	; 0x800544 <sys_time>
    100c:	50 91 45 05 	lds	r21, 0x0545	; 0x800545 <sys_time+0x1>
    1010:	e4 16       	cp	r14, r20
    1012:	f5 06       	cpc	r15, r21
    1014:	a1 f7       	brne	.-24     	; 0xffe <sw_timer_start+0x7e>
    1016:	60 e0       	ldi	r22, 0x00	; 0
    1018:	70 e0       	ldi	r23, 0x00	; 0
    101a:	ba 01       	movw	r22, r20
    101c:	55 27       	eor	r21, r21
    101e:	44 27       	eor	r20, r20
    1020:	2c 01       	movw	r4, r24
    1022:	61 2c       	mov	r6, r1
    1024:	71 2c       	mov	r7, r1
    1026:	4a 82       	std	Y+2, r4	; 0x02
    1028:	5b 82       	std	Y+3, r5	; 0x03
    102a:	6c 82       	std	Y+4, r6	; 0x04
    102c:	7d 82       	std	Y+5, r7	; 0x05
    102e:	44 2a       	or	r4, r20
    1030:	55 2a       	or	r5, r21
    1032:	66 2a       	or	r6, r22
    1034:	77 2a       	or	r7, r23
    1036:	22 20       	and	r2, r2
    1038:	21 f0       	breq	.+8      	; 0x1042 <sw_timer_start+0xc2>
    103a:	21 e0       	ldi	r18, 0x01	; 1
    103c:	22 16       	cp	r2, r18
    103e:	91 f0       	breq	.+36     	; 0x1064 <sw_timer_start+0xe4>
    1040:	ca c0       	rjmp	.+404    	; 0x11d6 <sw_timer_start+0x256>
    1042:	b5 01       	movw	r22, r10
    1044:	a4 01       	movw	r20, r8
    1046:	40 58       	subi	r20, 0x80	; 128
    1048:	51 09       	sbc	r21, r1
    104a:	61 09       	sbc	r22, r1
    104c:	71 09       	sbc	r23, r1
    104e:	40 38       	cpi	r20, 0x80	; 128
    1050:	5f 4f       	sbci	r21, 0xFF	; 255
    1052:	6f 4f       	sbci	r22, 0xFF	; 255
    1054:	7f 47       	sbci	r23, 0x7F	; 127
    1056:	08 f0       	brcs	.+2      	; 0x105a <sw_timer_start+0xda>
    1058:	c0 c0       	rjmp	.+384    	; 0x11da <sw_timer_start+0x25a>
    105a:	84 0c       	add	r8, r4
    105c:	95 1c       	adc	r9, r5
    105e:	a6 1c       	adc	r10, r6
    1060:	b7 1c       	adc	r11, r7
    1062:	10 c0       	rjmp	.+32     	; 0x1084 <sw_timer_start+0x104>
    1064:	b5 01       	movw	r22, r10
    1066:	a4 01       	movw	r20, r8
    1068:	40 58       	subi	r20, 0x80	; 128
    106a:	51 09       	sbc	r21, r1
    106c:	61 09       	sbc	r22, r1
    106e:	71 09       	sbc	r23, r1
    1070:	44 19       	sub	r20, r4
    1072:	55 09       	sbc	r21, r5
    1074:	66 09       	sbc	r22, r6
    1076:	77 09       	sbc	r23, r7
    1078:	40 38       	cpi	r20, 0x80	; 128
    107a:	5f 4f       	sbci	r21, 0xFF	; 255
    107c:	6f 4f       	sbci	r22, 0xFF	; 255
    107e:	7f 47       	sbci	r23, 0x7F	; 127
    1080:	08 f0       	brcs	.+2      	; 0x1084 <sw_timer_start+0x104>
    1082:	ad c0       	rjmp	.+346    	; 0x11de <sw_timer_start+0x25e>
    1084:	8f b7       	in	r24, 0x3f	; 63
    1086:	89 83       	std	Y+1, r24	; 0x01
    1088:	f8 94       	cli
    108a:	f9 80       	ldd	r15, Y+1	; 0x01
    108c:	1c df       	rcall	.-456    	; 0xec6 <internal_timer_handler>
    108e:	c6 01       	movw	r24, r12
    1090:	88 0f       	add	r24, r24
    1092:	99 1f       	adc	r25, r25
    1094:	88 0f       	add	r24, r24
    1096:	99 1f       	adc	r25, r25
    1098:	88 0f       	add	r24, r24
    109a:	99 1f       	adc	r25, r25
    109c:	f6 01       	movw	r30, r12
    109e:	ee 0f       	add	r30, r30
    10a0:	ff 1f       	adc	r31, r31
    10a2:	e8 0f       	add	r30, r24
    10a4:	f9 1f       	adc	r31, r25
    10a6:	ea 5b       	subi	r30, 0xBA	; 186
    10a8:	fa 4f       	sbci	r31, 0xFA	; 250
    10aa:	80 82       	st	Z, r8
    10ac:	91 82       	std	Z+1, r9	; 0x01
    10ae:	a2 82       	std	Z+2, r10	; 0x02
    10b0:	b3 82       	std	Z+3, r11	; 0x03
    10b2:	15 83       	std	Z+5, r17	; 0x05
    10b4:	04 83       	std	Z+4, r16	; 0x04
    10b6:	4e 80       	ldd	r4, Y+6	; 0x06
    10b8:	5f 80       	ldd	r5, Y+7	; 0x07
    10ba:	57 82       	std	Z+7, r5	; 0x07
    10bc:	46 82       	std	Z+6, r4	; 0x06
    10be:	11 86       	std	Z+9, r1	; 0x09
    10c0:	b0 91 b6 02 	lds	r27, 0x02B6	; 0x8002b6 <running_timers>
    10c4:	bf 5f       	subi	r27, 0xFF	; 255
    10c6:	b0 93 b6 02 	sts	0x02B6, r27	; 0x8002b6 <running_timers>
    10ca:	a0 91 b5 02 	lds	r26, 0x02B5	; 0x8002b5 <running_timer_queue_head>
    10ce:	af 3f       	cpi	r26, 0xFF	; 255
    10d0:	21 f0       	breq	.+8      	; 0x10da <sw_timer_start+0x15a>
    10d2:	b1 11       	cpse	r27, r1
    10d4:	07 c0       	rjmp	.+14     	; 0x10e4 <sw_timer_start+0x164>
    10d6:	ea 2e       	mov	r14, r26
    10d8:	84 c0       	rjmp	.+264    	; 0x11e2 <sw_timer_start+0x262>
    10da:	30 92 b5 02 	sts	0x02B5, r3	; 0x8002b5 <running_timer_queue_head>
    10de:	83 2d       	mov	r24, r3
    10e0:	84 de       	rcall	.-760    	; 0xdea <load_hw_timer>
    10e2:	70 c0       	rjmp	.+224    	; 0x11c4 <sw_timer_start+0x244>
    10e4:	ea 2e       	mov	r14, r26
    10e6:	4a 2f       	mov	r20, r26
    10e8:	50 e0       	ldi	r21, 0x00	; 0
    10ea:	4f 3f       	cpi	r20, 0xFF	; 255
    10ec:	09 f4       	brne	.+2      	; 0x10f0 <sw_timer_start+0x170>
    10ee:	66 c0       	rjmp	.+204    	; 0x11bc <sw_timer_start+0x23c>
    10f0:	84 2f       	mov	r24, r20
    10f2:	90 e0       	ldi	r25, 0x00	; 0
    10f4:	bc 01       	movw	r22, r24
    10f6:	66 0f       	add	r22, r22
    10f8:	77 1f       	adc	r23, r23
    10fa:	9c 01       	movw	r18, r24
    10fc:	22 0f       	add	r18, r18
    10fe:	33 1f       	adc	r19, r19
    1100:	22 0f       	add	r18, r18
    1102:	33 1f       	adc	r19, r19
    1104:	22 0f       	add	r18, r18
    1106:	33 1f       	adc	r19, r19
    1108:	26 0f       	add	r18, r22
    110a:	37 1f       	adc	r19, r23
    110c:	f9 01       	movw	r30, r18
    110e:	ea 5b       	subi	r30, 0xBA	; 186
    1110:	fa 4f       	sbci	r31, 0xFA	; 250
    1112:	40 80       	ld	r4, Z
    1114:	51 80       	ldd	r5, Z+1	; 0x01
    1116:	62 80       	ldd	r6, Z+2	; 0x02
    1118:	73 80       	ldd	r7, Z+3	; 0x03
    111a:	95 01       	movw	r18, r10
    111c:	84 01       	movw	r16, r8
    111e:	04 19       	sub	r16, r4
    1120:	15 09       	sbc	r17, r5
    1122:	26 09       	sbc	r18, r6
    1124:	37 09       	sbc	r19, r7
    1126:	28 01       	movw	r4, r16
    1128:	39 01       	movw	r6, r18
    112a:	1f ef       	ldi	r17, 0xFF	; 255
    112c:	41 16       	cp	r4, r17
    112e:	51 06       	cpc	r5, r17
    1130:	61 06       	cpc	r6, r17
    1132:	1f e7       	ldi	r17, 0x7F	; 127
    1134:	71 06       	cpc	r7, r17
    1136:	70 f4       	brcc	.+28     	; 0x1154 <sw_timer_start+0x1d4>
    1138:	fb 01       	movw	r30, r22
    113a:	88 0f       	add	r24, r24
    113c:	99 1f       	adc	r25, r25
    113e:	88 0f       	add	r24, r24
    1140:	99 1f       	adc	r25, r25
    1142:	88 0f       	add	r24, r24
    1144:	99 1f       	adc	r25, r25
    1146:	e8 0f       	add	r30, r24
    1148:	f9 1f       	adc	r31, r25
    114a:	ea 5b       	subi	r30, 0xBA	; 186
    114c:	fa 4f       	sbci	r31, 0xFA	; 250
    114e:	e4 2e       	mov	r14, r20
    1150:	40 85       	ldd	r20, Z+8	; 0x08
    1152:	34 c0       	rjmp	.+104    	; 0x11bc <sw_timer_start+0x23c>
    1154:	f6 01       	movw	r30, r12
    1156:	ee 0f       	add	r30, r30
    1158:	ff 1f       	adc	r31, r31
    115a:	cc 0c       	add	r12, r12
    115c:	dd 1c       	adc	r13, r13
    115e:	cc 0c       	add	r12, r12
    1160:	dd 1c       	adc	r13, r13
    1162:	cc 0c       	add	r12, r12
    1164:	dd 1c       	adc	r13, r13
    1166:	ec 0d       	add	r30, r12
    1168:	fd 1d       	adc	r31, r13
    116a:	ea 5b       	subi	r30, 0xBA	; 186
    116c:	fa 4f       	sbci	r31, 0xFA	; 250
    116e:	40 87       	std	Z+8, r20	; 0x08
    1170:	fc 01       	movw	r30, r24
    1172:	ee 0f       	add	r30, r30
    1174:	ff 1f       	adc	r31, r31
    1176:	88 0f       	add	r24, r24
    1178:	99 1f       	adc	r25, r25
    117a:	88 0f       	add	r24, r24
    117c:	99 1f       	adc	r25, r25
    117e:	88 0f       	add	r24, r24
    1180:	99 1f       	adc	r25, r25
    1182:	e8 0f       	add	r30, r24
    1184:	f9 1f       	adc	r31, r25
    1186:	ea 5b       	subi	r30, 0xBA	; 186
    1188:	fa 4f       	sbci	r31, 0xFA	; 250
    118a:	11 86       	std	Z+9, r1	; 0x09
    118c:	a4 13       	cpse	r26, r20
    118e:	05 c0       	rjmp	.+10     	; 0x119a <sw_timer_start+0x21a>
    1190:	30 92 b5 02 	sts	0x02B5, r3	; 0x8002b5 <running_timer_queue_head>
    1194:	83 2d       	mov	r24, r3
    1196:	29 de       	rcall	.-942    	; 0xdea <load_hw_timer>
    1198:	15 c0       	rjmp	.+42     	; 0x11c4 <sw_timer_start+0x244>
    119a:	8e 2d       	mov	r24, r14
    119c:	90 e0       	ldi	r25, 0x00	; 0
    119e:	fc 01       	movw	r30, r24
    11a0:	ee 0f       	add	r30, r30
    11a2:	ff 1f       	adc	r31, r31
    11a4:	88 0f       	add	r24, r24
    11a6:	99 1f       	adc	r25, r25
    11a8:	88 0f       	add	r24, r24
    11aa:	99 1f       	adc	r25, r25
    11ac:	88 0f       	add	r24, r24
    11ae:	99 1f       	adc	r25, r25
    11b0:	e8 0f       	add	r30, r24
    11b2:	f9 1f       	adc	r31, r25
    11b4:	ea 5b       	subi	r30, 0xBA	; 186
    11b6:	fa 4f       	sbci	r31, 0xFA	; 250
    11b8:	30 86       	std	Z+8, r3	; 0x08
    11ba:	04 c0       	rjmp	.+8      	; 0x11c4 <sw_timer_start+0x244>
    11bc:	5f 5f       	subi	r21, 0xFF	; 255
    11be:	b5 13       	cpse	r27, r21
    11c0:	94 cf       	rjmp	.-216    	; 0x10ea <sw_timer_start+0x16a>
    11c2:	0f c0       	rjmp	.+30     	; 0x11e2 <sw_timer_start+0x262>
    11c4:	ff be       	out	0x3f, r15	; 63
    11c6:	80 e0       	ldi	r24, 0x00	; 0
    11c8:	2c c0       	rjmp	.+88     	; 0x1222 <sw_timer_start+0x2a2>
    11ca:	88 ef       	ldi	r24, 0xF8	; 248
    11cc:	2a c0       	rjmp	.+84     	; 0x1222 <sw_timer_start+0x2a2>
    11ce:	88 ef       	ldi	r24, 0xF8	; 248
    11d0:	28 c0       	rjmp	.+80     	; 0x1222 <sw_timer_start+0x2a2>
    11d2:	83 ef       	ldi	r24, 0xF3	; 243
    11d4:	26 c0       	rjmp	.+76     	; 0x1222 <sw_timer_start+0x2a2>
    11d6:	88 ef       	ldi	r24, 0xF8	; 248
    11d8:	24 c0       	rjmp	.+72     	; 0x1222 <sw_timer_start+0x2a2>
    11da:	88 ef       	ldi	r24, 0xF8	; 248
    11dc:	22 c0       	rjmp	.+68     	; 0x1222 <sw_timer_start+0x2a2>
    11de:	88 ef       	ldi	r24, 0xF8	; 248
    11e0:	20 c0       	rjmp	.+64     	; 0x1222 <sw_timer_start+0x2a2>
    11e2:	8e 2d       	mov	r24, r14
    11e4:	90 e0       	ldi	r25, 0x00	; 0
    11e6:	fc 01       	movw	r30, r24
    11e8:	ee 0f       	add	r30, r30
    11ea:	ff 1f       	adc	r31, r31
    11ec:	88 0f       	add	r24, r24
    11ee:	99 1f       	adc	r25, r25
    11f0:	88 0f       	add	r24, r24
    11f2:	99 1f       	adc	r25, r25
    11f4:	88 0f       	add	r24, r24
    11f6:	99 1f       	adc	r25, r25
    11f8:	e8 0f       	add	r30, r24
    11fa:	f9 1f       	adc	r31, r25
    11fc:	ea 5b       	subi	r30, 0xBA	; 186
    11fe:	fa 4f       	sbci	r31, 0xFA	; 250
    1200:	30 86       	std	Z+8, r3	; 0x08
    1202:	f6 01       	movw	r30, r12
    1204:	ee 0f       	add	r30, r30
    1206:	ff 1f       	adc	r31, r31
    1208:	cc 0c       	add	r12, r12
    120a:	dd 1c       	adc	r13, r13
    120c:	cc 0c       	add	r12, r12
    120e:	dd 1c       	adc	r13, r13
    1210:	cc 0c       	add	r12, r12
    1212:	dd 1c       	adc	r13, r13
    1214:	ec 0d       	add	r30, r12
    1216:	fd 1d       	adc	r31, r13
    1218:	ea 5b       	subi	r30, 0xBA	; 186
    121a:	fa 4f       	sbci	r31, 0xFA	; 250
    121c:	8f ef       	ldi	r24, 0xFF	; 255
    121e:	80 87       	std	Z+8, r24	; 0x08
    1220:	d1 cf       	rjmp	.-94     	; 0x11c4 <sw_timer_start+0x244>
    1222:	27 96       	adiw	r28, 0x07	; 7
    1224:	0f b6       	in	r0, 0x3f	; 63
    1226:	f8 94       	cli
    1228:	de bf       	out	0x3e, r29	; 62
    122a:	0f be       	out	0x3f, r0	; 63
    122c:	cd bf       	out	0x3d, r28	; 61
    122e:	df 91       	pop	r29
    1230:	cf 91       	pop	r28
    1232:	1f 91       	pop	r17
    1234:	0f 91       	pop	r16
    1236:	ff 90       	pop	r15
    1238:	ef 90       	pop	r14
    123a:	df 90       	pop	r13
    123c:	cf 90       	pop	r12
    123e:	bf 90       	pop	r11
    1240:	af 90       	pop	r10
    1242:	9f 90       	pop	r9
    1244:	8f 90       	pop	r8
    1246:	7f 90       	pop	r7
    1248:	6f 90       	pop	r6
    124a:	5f 90       	pop	r5
    124c:	4f 90       	pop	r4
    124e:	3f 90       	pop	r3
    1250:	2f 90       	pop	r2
    1252:	08 95       	ret

00001254 <sw_timer_stop>:
    1254:	0f 93       	push	r16
    1256:	1f 93       	push	r17
    1258:	cf 93       	push	r28
    125a:	df 93       	push	r29
    125c:	1f 92       	push	r1
    125e:	cd b7       	in	r28, 0x3d	; 61
    1260:	de b7       	in	r29, 0x3e	; 62
    1262:	85 30       	cpi	r24, 0x05	; 5
    1264:	08 f0       	brcs	.+2      	; 0x1268 <sw_timer_stop+0x14>
    1266:	f1 c0       	rjmp	.+482    	; 0x144a <sw_timer_stop+0x1f6>
    1268:	08 2f       	mov	r16, r24
    126a:	8f b7       	in	r24, 0x3f	; 63
    126c:	89 83       	std	Y+1, r24	; 0x01
    126e:	f8 94       	cli
    1270:	19 81       	ldd	r17, Y+1	; 0x01
    1272:	29 de       	rcall	.-942    	; 0xec6 <internal_timer_handler>
    1274:	80 91 b6 02 	lds	r24, 0x02B6	; 0x8002b6 <running_timers>
    1278:	88 23       	and	r24, r24
    127a:	09 f4       	brne	.+2      	; 0x127e <sw_timer_stop+0x2a>
    127c:	66 c0       	rjmp	.+204    	; 0x134a <sw_timer_stop+0xf6>
    127e:	90 91 b5 02 	lds	r25, 0x02B5	; 0x8002b5 <running_timer_queue_head>
    1282:	09 13       	cpse	r16, r25
    1284:	4e c0       	rjmp	.+156    	; 0x1322 <sw_timer_stop+0xce>
    1286:	21 c0       	rjmp	.+66     	; 0x12ca <sw_timer_stop+0x76>
    1288:	09 13       	cpse	r16, r25
    128a:	4b c0       	rjmp	.+150    	; 0x1322 <sw_timer_stop+0xce>
    128c:	80 2f       	mov	r24, r16
    128e:	90 e0       	ldi	r25, 0x00	; 0
    1290:	fc 01       	movw	r30, r24
    1292:	ee 0f       	add	r30, r30
    1294:	ff 1f       	adc	r31, r31
    1296:	88 0f       	add	r24, r24
    1298:	99 1f       	adc	r25, r25
    129a:	88 0f       	add	r24, r24
    129c:	99 1f       	adc	r25, r25
    129e:	88 0f       	add	r24, r24
    12a0:	99 1f       	adc	r25, r25
    12a2:	e8 0f       	add	r30, r24
    12a4:	f9 1f       	adc	r31, r25
    12a6:	ea 5b       	subi	r30, 0xBA	; 186
    12a8:	fa 4f       	sbci	r31, 0xFA	; 250
    12aa:	80 85       	ldd	r24, Z+8	; 0x08
    12ac:	fa 01       	movw	r30, r20
    12ae:	ee 0f       	add	r30, r30
    12b0:	ff 1f       	adc	r31, r31
    12b2:	44 0f       	add	r20, r20
    12b4:	55 1f       	adc	r21, r21
    12b6:	44 0f       	add	r20, r20
    12b8:	55 1f       	adc	r21, r21
    12ba:	44 0f       	add	r20, r20
    12bc:	55 1f       	adc	r21, r21
    12be:	e4 0f       	add	r30, r20
    12c0:	f5 1f       	adc	r31, r21
    12c2:	ea 5b       	subi	r30, 0xBA	; 186
    12c4:	fa 4f       	sbci	r31, 0xFA	; 250
    12c6:	80 87       	std	Z+8, r24	; 0x08
    12c8:	15 c0       	rjmp	.+42     	; 0x12f4 <sw_timer_stop+0xa0>
    12ca:	0e 94 44 01 	call	0x288	; 0x288 <common_tc_compare_stop>
    12ce:	80 2f       	mov	r24, r16
    12d0:	90 e0       	ldi	r25, 0x00	; 0
    12d2:	fc 01       	movw	r30, r24
    12d4:	ee 0f       	add	r30, r30
    12d6:	ff 1f       	adc	r31, r31
    12d8:	88 0f       	add	r24, r24
    12da:	99 1f       	adc	r25, r25
    12dc:	88 0f       	add	r24, r24
    12de:	99 1f       	adc	r25, r25
    12e0:	88 0f       	add	r24, r24
    12e2:	99 1f       	adc	r25, r25
    12e4:	e8 0f       	add	r30, r24
    12e6:	f9 1f       	adc	r31, r25
    12e8:	ea 5b       	subi	r30, 0xBA	; 186
    12ea:	fa 4f       	sbci	r31, 0xFA	; 250
    12ec:	80 85       	ldd	r24, Z+8	; 0x08
    12ee:	80 93 b5 02 	sts	0x02B5, r24	; 0x8002b5 <running_timer_queue_head>
    12f2:	7b dd       	rcall	.-1290   	; 0xdea <load_hw_timer>
    12f4:	80 2f       	mov	r24, r16
    12f6:	90 e0       	ldi	r25, 0x00	; 0
    12f8:	fc 01       	movw	r30, r24
    12fa:	ee 0f       	add	r30, r30
    12fc:	ff 1f       	adc	r31, r31
    12fe:	88 0f       	add	r24, r24
    1300:	99 1f       	adc	r25, r25
    1302:	88 0f       	add	r24, r24
    1304:	99 1f       	adc	r25, r25
    1306:	88 0f       	add	r24, r24
    1308:	99 1f       	adc	r25, r25
    130a:	e8 0f       	add	r30, r24
    130c:	f9 1f       	adc	r31, r25
    130e:	ea 5b       	subi	r30, 0xBA	; 186
    1310:	fa 4f       	sbci	r31, 0xFA	; 250
    1312:	8f ef       	ldi	r24, 0xFF	; 255
    1314:	80 87       	std	Z+8, r24	; 0x08
    1316:	80 91 b6 02 	lds	r24, 0x02B6	; 0x8002b6 <running_timers>
    131a:	81 50       	subi	r24, 0x01	; 1
    131c:	80 93 b6 02 	sts	0x02B6, r24	; 0x8002b6 <running_timers>
    1320:	78 c0       	rjmp	.+240    	; 0x1412 <sw_timer_stop+0x1be>
    1322:	49 2f       	mov	r20, r25
    1324:	50 e0       	ldi	r21, 0x00	; 0
    1326:	fa 01       	movw	r30, r20
    1328:	ee 0f       	add	r30, r30
    132a:	ff 1f       	adc	r31, r31
    132c:	9a 01       	movw	r18, r20
    132e:	22 0f       	add	r18, r18
    1330:	33 1f       	adc	r19, r19
    1332:	22 0f       	add	r18, r18
    1334:	33 1f       	adc	r19, r19
    1336:	22 0f       	add	r18, r18
    1338:	33 1f       	adc	r19, r19
    133a:	e2 0f       	add	r30, r18
    133c:	f3 1f       	adc	r31, r19
    133e:	ea 5b       	subi	r30, 0xBA	; 186
    1340:	fa 4f       	sbci	r31, 0xFA	; 250
    1342:	90 85       	ldd	r25, Z+8	; 0x08
    1344:	81 50       	subi	r24, 0x01	; 1
    1346:	09 f0       	breq	.+2      	; 0x134a <sw_timer_stop+0xf6>
    1348:	9f cf       	rjmp	.-194    	; 0x1288 <sw_timer_stop+0x34>
    134a:	80 91 b4 02 	lds	r24, 0x02B4	; 0x8002b4 <expired_timer_queue_head>
    134e:	8f 3f       	cpi	r24, 0xFF	; 255
    1350:	09 f4       	brne	.+2      	; 0x1354 <sw_timer_stop+0x100>
    1352:	75 c0       	rjmp	.+234    	; 0x143e <sw_timer_stop+0x1ea>
    1354:	08 13       	cpse	r16, r24
    1356:	47 c0       	rjmp	.+142    	; 0x13e6 <sw_timer_stop+0x192>
    1358:	25 c0       	rjmp	.+74     	; 0x13a4 <sw_timer_stop+0x150>
    135a:	09 13       	cpse	r16, r25
    135c:	43 c0       	rjmp	.+134    	; 0x13e4 <sw_timer_stop+0x190>
    135e:	20 2f       	mov	r18, r16
    1360:	30 e0       	ldi	r19, 0x00	; 0
    1362:	f9 01       	movw	r30, r18
    1364:	ee 0f       	add	r30, r30
    1366:	ff 1f       	adc	r31, r31
    1368:	22 0f       	add	r18, r18
    136a:	33 1f       	adc	r19, r19
    136c:	22 0f       	add	r18, r18
    136e:	33 1f       	adc	r19, r19
    1370:	22 0f       	add	r18, r18
    1372:	33 1f       	adc	r19, r19
    1374:	e2 0f       	add	r30, r18
    1376:	f3 1f       	adc	r31, r19
    1378:	ea 5b       	subi	r30, 0xBA	; 186
    137a:	fa 4f       	sbci	r31, 0xFA	; 250
    137c:	90 85       	ldd	r25, Z+8	; 0x08
    137e:	fa 01       	movw	r30, r20
    1380:	ee 0f       	add	r30, r30
    1382:	ff 1f       	adc	r31, r31
    1384:	44 0f       	add	r20, r20
    1386:	55 1f       	adc	r21, r21
    1388:	44 0f       	add	r20, r20
    138a:	55 1f       	adc	r21, r21
    138c:	44 0f       	add	r20, r20
    138e:	55 1f       	adc	r21, r21
    1390:	e4 0f       	add	r30, r20
    1392:	f5 1f       	adc	r31, r21
    1394:	ea 5b       	subi	r30, 0xBA	; 186
    1396:	fa 4f       	sbci	r31, 0xFA	; 250
    1398:	90 87       	std	Z+8, r25	; 0x08
    139a:	90 91 b3 02 	lds	r25, 0x02B3	; 0x8002b3 <expired_timer_queue_tail>
    139e:	09 13       	cpse	r16, r25
    13a0:	38 c0       	rjmp	.+112    	; 0x1412 <sw_timer_stop+0x1be>
    13a2:	1d c0       	rjmp	.+58     	; 0x13de <sw_timer_stop+0x18a>
    13a4:	80 91 b3 02 	lds	r24, 0x02B3	; 0x8002b3 <expired_timer_queue_tail>
    13a8:	08 13       	cpse	r16, r24
    13aa:	06 c0       	rjmp	.+12     	; 0x13b8 <sw_timer_stop+0x164>
    13ac:	8f ef       	ldi	r24, 0xFF	; 255
    13ae:	80 93 b3 02 	sts	0x02B3, r24	; 0x8002b3 <expired_timer_queue_tail>
    13b2:	80 93 b4 02 	sts	0x02B4, r24	; 0x8002b4 <expired_timer_queue_head>
    13b6:	2d c0       	rjmp	.+90     	; 0x1412 <sw_timer_stop+0x1be>
    13b8:	80 2f       	mov	r24, r16
    13ba:	90 e0       	ldi	r25, 0x00	; 0
    13bc:	fc 01       	movw	r30, r24
    13be:	ee 0f       	add	r30, r30
    13c0:	ff 1f       	adc	r31, r31
    13c2:	88 0f       	add	r24, r24
    13c4:	99 1f       	adc	r25, r25
    13c6:	88 0f       	add	r24, r24
    13c8:	99 1f       	adc	r25, r25
    13ca:	88 0f       	add	r24, r24
    13cc:	99 1f       	adc	r25, r25
    13ce:	e8 0f       	add	r30, r24
    13d0:	f9 1f       	adc	r31, r25
    13d2:	ea 5b       	subi	r30, 0xBA	; 186
    13d4:	fa 4f       	sbci	r31, 0xFA	; 250
    13d6:	80 85       	ldd	r24, Z+8	; 0x08
    13d8:	80 93 b4 02 	sts	0x02B4, r24	; 0x8002b4 <expired_timer_queue_head>
    13dc:	1a c0       	rjmp	.+52     	; 0x1412 <sw_timer_stop+0x1be>
    13de:	80 93 b3 02 	sts	0x02B3, r24	; 0x8002b3 <expired_timer_queue_tail>
    13e2:	17 c0       	rjmp	.+46     	; 0x1412 <sw_timer_stop+0x1be>
    13e4:	89 2f       	mov	r24, r25
    13e6:	48 2f       	mov	r20, r24
    13e8:	50 e0       	ldi	r21, 0x00	; 0
    13ea:	fa 01       	movw	r30, r20
    13ec:	ee 0f       	add	r30, r30
    13ee:	ff 1f       	adc	r31, r31
    13f0:	9a 01       	movw	r18, r20
    13f2:	22 0f       	add	r18, r18
    13f4:	33 1f       	adc	r19, r19
    13f6:	22 0f       	add	r18, r18
    13f8:	33 1f       	adc	r19, r19
    13fa:	22 0f       	add	r18, r18
    13fc:	33 1f       	adc	r19, r19
    13fe:	e2 0f       	add	r30, r18
    1400:	f3 1f       	adc	r31, r19
    1402:	ea 5b       	subi	r30, 0xBA	; 186
    1404:	fa 4f       	sbci	r31, 0xFA	; 250
    1406:	90 85       	ldd	r25, Z+8	; 0x08
    1408:	9f 3f       	cpi	r25, 0xFF	; 255
    140a:	09 f0       	breq	.+2      	; 0x140e <sw_timer_stop+0x1ba>
    140c:	a6 cf       	rjmp	.-180    	; 0x135a <sw_timer_stop+0x106>
    140e:	80 e0       	ldi	r24, 0x00	; 0
    1410:	17 c0       	rjmp	.+46     	; 0x1440 <sw_timer_stop+0x1ec>
    1412:	80 2f       	mov	r24, r16
    1414:	90 e0       	ldi	r25, 0x00	; 0
    1416:	fc 01       	movw	r30, r24
    1418:	ee 0f       	add	r30, r30
    141a:	ff 1f       	adc	r31, r31
    141c:	88 0f       	add	r24, r24
    141e:	99 1f       	adc	r25, r25
    1420:	88 0f       	add	r24, r24
    1422:	99 1f       	adc	r25, r25
    1424:	88 0f       	add	r24, r24
    1426:	99 1f       	adc	r25, r25
    1428:	e8 0f       	add	r30, r24
    142a:	f9 1f       	adc	r31, r25
    142c:	ea 5b       	subi	r30, 0xBA	; 186
    142e:	fa 4f       	sbci	r31, 0xFA	; 250
    1430:	15 82       	std	Z+5, r1	; 0x05
    1432:	14 82       	std	Z+4, r1	; 0x04
    1434:	17 82       	std	Z+7, r1	; 0x07
    1436:	16 82       	std	Z+6, r1	; 0x06
    1438:	11 86       	std	Z+9, r1	; 0x09
    143a:	81 e0       	ldi	r24, 0x01	; 1
    143c:	01 c0       	rjmp	.+2      	; 0x1440 <sw_timer_stop+0x1ec>
    143e:	80 e0       	ldi	r24, 0x00	; 0
    1440:	1f bf       	out	0x3f, r17	; 63
    1442:	81 11       	cpse	r24, r1
    1444:	04 c0       	rjmp	.+8      	; 0x144e <sw_timer_stop+0x1fa>
    1446:	82 ef       	ldi	r24, 0xF2	; 242
    1448:	03 c0       	rjmp	.+6      	; 0x1450 <sw_timer_stop+0x1fc>
    144a:	88 ef       	ldi	r24, 0xF8	; 248
    144c:	01 c0       	rjmp	.+2      	; 0x1450 <sw_timer_stop+0x1fc>
    144e:	80 e0       	ldi	r24, 0x00	; 0
    1450:	0f 90       	pop	r0
    1452:	df 91       	pop	r29
    1454:	cf 91       	pop	r28
    1456:	1f 91       	pop	r17
    1458:	0f 91       	pop	r16
    145a:	08 95       	ret

0000145c <sw_timer_init>:
    145c:	10 92 b6 02 	sts	0x02B6, r1	; 0x8002b6 <running_timers>
    1460:	10 92 78 05 	sts	0x0578, r1	; 0x800578 <timer_trigger>
    1464:	10 92 45 05 	sts	0x0545, r1	; 0x800545 <sys_time+0x1>
    1468:	10 92 44 05 	sts	0x0544, r1	; 0x800544 <sys_time>
    146c:	8f ef       	ldi	r24, 0xFF	; 255
    146e:	80 93 b5 02 	sts	0x02B5, r24	; 0x8002b5 <running_timer_queue_head>
    1472:	80 93 b4 02 	sts	0x02B4, r24	; 0x8002b4 <expired_timer_queue_head>
    1476:	80 93 b3 02 	sts	0x02B3, r24	; 0x8002b3 <expired_timer_queue_tail>
    147a:	e6 e4       	ldi	r30, 0x46	; 70
    147c:	f5 e0       	ldi	r31, 0x05	; 5
    147e:	28 e7       	ldi	r18, 0x78	; 120
    1480:	35 e0       	ldi	r19, 0x05	; 5
    1482:	80 87       	std	Z+8, r24	; 0x08
    1484:	15 82       	std	Z+5, r1	; 0x05
    1486:	14 82       	std	Z+4, r1	; 0x04
    1488:	3a 96       	adiw	r30, 0x0a	; 10
    148a:	e2 17       	cp	r30, r18
    148c:	f3 07       	cpc	r31, r19
    148e:	c9 f7       	brne	.-14     	; 0x1482 <sw_timer_init+0x26>
    1490:	10 92 b2 02 	sts	0x02B2, r1	; 0x8002b2 <alloc_timer_id>
    1494:	8b e9       	ldi	r24, 0x9B	; 155
    1496:	96 e0       	ldi	r25, 0x06	; 6
    1498:	0e 94 1d 02 	call	0x43a	; 0x43a <set_common_tc_overflow_callback>
    149c:	83 e9       	ldi	r24, 0x93	; 147
    149e:	96 e0       	ldi	r25, 0x06	; 6
    14a0:	0e 94 22 02 	call	0x444	; 0x444 <set_common_tc_expiry_callback>
    14a4:	0c 94 d4 01 	jmp	0x3a8	; 0x3a8 <common_tc_init>
    14a8:	08 95       	ret

000014aa <sw_timer_service>:
    14aa:	0f 93       	push	r16
    14ac:	1f 93       	push	r17
    14ae:	cf 93       	push	r28
    14b0:	df 93       	push	r29
    14b2:	1f 92       	push	r1
    14b4:	1f 92       	push	r1
    14b6:	cd b7       	in	r28, 0x3d	; 61
    14b8:	de b7       	in	r29, 0x3e	; 62
    14ba:	8f b7       	in	r24, 0x3f	; 63
    14bc:	8a 83       	std	Y+2, r24	; 0x02
    14be:	f8 94       	cli
    14c0:	1a 81       	ldd	r17, Y+2	; 0x02
    14c2:	01 dd       	rcall	.-1534   	; 0xec6 <internal_timer_handler>
    14c4:	1f bf       	out	0x3f, r17	; 63
    14c6:	1f ef       	ldi	r17, 0xFF	; 255
    14c8:	01 2f       	mov	r16, r17
    14ca:	37 c0       	rjmp	.+110    	; 0x153a <sw_timer_service+0x90>
    14cc:	8f b7       	in	r24, 0x3f	; 63
    14ce:	89 83       	std	Y+1, r24	; 0x01
    14d0:	f8 94       	cli
    14d2:	29 81       	ldd	r18, Y+1	; 0x01
    14d4:	80 91 b4 02 	lds	r24, 0x02B4	; 0x8002b4 <expired_timer_queue_head>
    14d8:	90 e0       	ldi	r25, 0x00	; 0
    14da:	dc 01       	movw	r26, r24
    14dc:	aa 0f       	add	r26, r26
    14de:	bb 1f       	adc	r27, r27
    14e0:	88 0f       	add	r24, r24
    14e2:	99 1f       	adc	r25, r25
    14e4:	88 0f       	add	r24, r24
    14e6:	99 1f       	adc	r25, r25
    14e8:	88 0f       	add	r24, r24
    14ea:	99 1f       	adc	r25, r25
    14ec:	a8 0f       	add	r26, r24
    14ee:	b9 1f       	adc	r27, r25
    14f0:	aa 5b       	subi	r26, 0xBA	; 186
    14f2:	ba 4f       	sbci	r27, 0xFA	; 250
    14f4:	18 96       	adiw	r26, 0x08	; 8
    14f6:	9c 91       	ld	r25, X
    14f8:	18 97       	sbiw	r26, 0x08	; 8
    14fa:	14 96       	adiw	r26, 0x04	; 4
    14fc:	ed 91       	ld	r30, X+
    14fe:	fc 91       	ld	r31, X
    1500:	15 97       	sbiw	r26, 0x05	; 5
    1502:	16 96       	adiw	r26, 0x06	; 6
    1504:	4d 91       	ld	r20, X+
    1506:	5c 91       	ld	r21, X
    1508:	17 97       	sbiw	r26, 0x07	; 7
    150a:	18 96       	adiw	r26, 0x08	; 8
    150c:	1c 93       	st	X, r17
    150e:	18 97       	sbiw	r26, 0x08	; 8
    1510:	15 96       	adiw	r26, 0x05	; 5
    1512:	1c 92       	st	X, r1
    1514:	1e 92       	st	-X, r1
    1516:	14 97       	sbiw	r26, 0x04	; 4
    1518:	17 96       	adiw	r26, 0x07	; 7
    151a:	1c 92       	st	X, r1
    151c:	1e 92       	st	-X, r1
    151e:	16 97       	sbiw	r26, 0x06	; 6
    1520:	19 96       	adiw	r26, 0x09	; 9
    1522:	1c 92       	st	X, r1
    1524:	90 93 b4 02 	sts	0x02B4, r25	; 0x8002b4 <expired_timer_queue_head>
    1528:	9f 3f       	cpi	r25, 0xFF	; 255
    152a:	11 f4       	brne	.+4      	; 0x1530 <sw_timer_service+0x86>
    152c:	00 93 b3 02 	sts	0x02B3, r16	; 0x8002b3 <expired_timer_queue_tail>
    1530:	2f bf       	out	0x3f, r18	; 63
    1532:	30 97       	sbiw	r30, 0x00	; 0
    1534:	11 f0       	breq	.+4      	; 0x153a <sw_timer_service+0x90>
    1536:	ca 01       	movw	r24, r20
    1538:	19 95       	eicall
    153a:	80 91 b4 02 	lds	r24, 0x02B4	; 0x8002b4 <expired_timer_queue_head>
    153e:	8f 3f       	cpi	r24, 0xFF	; 255
    1540:	29 f6       	brne	.-118    	; 0x14cc <sw_timer_service+0x22>
    1542:	0f 90       	pop	r0
    1544:	0f 90       	pop	r0
    1546:	df 91       	pop	r29
    1548:	cf 91       	pop	r28
    154a:	1f 91       	pop	r17
    154c:	0f 91       	pop	r16
    154e:	08 95       	ret

00001550 <pal_init>:
    1550:	80 e0       	ldi	r24, 0x00	; 0
    1552:	08 95       	ret

00001554 <pal_task>:
    1554:	aa cf       	rjmp	.-172    	; 0x14aa <sw_timer_service>
    1556:	08 95       	ret

00001558 <bmm_buffer_init>:
    1558:	cf 93       	push	r28
    155a:	df 93       	push	r29
    155c:	87 eb       	ldi	r24, 0xB7	; 183
    155e:	92 e0       	ldi	r25, 0x02	; 2
    1560:	b0 d0       	rcall	.+352    	; 0x16c2 <qmm_queue_init>
    1562:	cc eb       	ldi	r28, 0xBC	; 188
    1564:	d2 e0       	ldi	r29, 0x02	; 2
    1566:	88 ec       	ldi	r24, 0xC8	; 200
    1568:	92 e0       	ldi	r25, 0x02	; 2
    156a:	99 83       	std	Y+1, r25	; 0x01
    156c:	88 83       	st	Y, r24
    156e:	be 01       	movw	r22, r28
    1570:	87 eb       	ldi	r24, 0xB7	; 183
    1572:	92 e0       	ldi	r25, 0x02	; 2
    1574:	ad d0       	rcall	.+346    	; 0x16d0 <qmm_queue_append>
    1576:	83 e5       	ldi	r24, 0x53	; 83
    1578:	93 e0       	ldi	r25, 0x03	; 3
    157a:	9d 83       	std	Y+5, r25	; 0x05
    157c:	8c 83       	std	Y+4, r24	; 0x04
    157e:	60 ec       	ldi	r22, 0xC0	; 192
    1580:	72 e0       	ldi	r23, 0x02	; 2
    1582:	87 eb       	ldi	r24, 0xB7	; 183
    1584:	92 e0       	ldi	r25, 0x02	; 2
    1586:	a4 d0       	rcall	.+328    	; 0x16d0 <qmm_queue_append>
    1588:	8e ed       	ldi	r24, 0xDE	; 222
    158a:	93 e0       	ldi	r25, 0x03	; 3
    158c:	99 87       	std	Y+9, r25	; 0x09
    158e:	88 87       	std	Y+8, r24	; 0x08
    1590:	64 ec       	ldi	r22, 0xC4	; 196
    1592:	72 e0       	ldi	r23, 0x02	; 2
    1594:	87 eb       	ldi	r24, 0xB7	; 183
    1596:	92 e0       	ldi	r25, 0x02	; 2
    1598:	9b d0       	rcall	.+310    	; 0x16d0 <qmm_queue_append>
    159a:	df 91       	pop	r29
    159c:	cf 91       	pop	r28
    159e:	08 95       	ret

000015a0 <bmm_buffer_alloc>:
    15a0:	60 e0       	ldi	r22, 0x00	; 0
    15a2:	70 e0       	ldi	r23, 0x00	; 0
    15a4:	87 eb       	ldi	r24, 0xB7	; 183
    15a6:	92 e0       	ldi	r25, 0x02	; 2
    15a8:	b8 c0       	rjmp	.+368    	; 0x171a <qmm_queue_remove>
    15aa:	08 95       	ret

000015ac <bmm_buffer_free>:
    15ac:	00 97       	sbiw	r24, 0x00	; 0
    15ae:	21 f0       	breq	.+8      	; 0x15b8 <bmm_buffer_free+0xc>
    15b0:	bc 01       	movw	r22, r24
    15b2:	87 eb       	ldi	r24, 0xB7	; 183
    15b4:	92 e0       	ldi	r25, 0x02	; 2
    15b6:	8c c0       	rjmp	.+280    	; 0x16d0 <qmm_queue_append>
    15b8:	08 95       	ret

000015ba <queue_read_or_remove>:
    15ba:	8f 92       	push	r8
    15bc:	9f 92       	push	r9
    15be:	af 92       	push	r10
    15c0:	bf 92       	push	r11
    15c2:	cf 92       	push	r12
    15c4:	df 92       	push	r13
    15c6:	ef 92       	push	r14
    15c8:	ff 92       	push	r15
    15ca:	0f 93       	push	r16
    15cc:	1f 93       	push	r17
    15ce:	cf 93       	push	r28
    15d0:	df 93       	push	r29
    15d2:	1f 92       	push	r1
    15d4:	cd b7       	in	r28, 0x3d	; 61
    15d6:	de b7       	in	r29, 0x3e	; 62
    15d8:	2f b7       	in	r18, 0x3f	; 63
    15da:	29 83       	std	Y+1, r18	; 0x01
    15dc:	f8 94       	cli
    15de:	89 80       	ldd	r8, Y+1	; 0x01
    15e0:	dc 01       	movw	r26, r24
    15e2:	14 96       	adiw	r26, 0x04	; 4
    15e4:	2c 91       	ld	r18, X
    15e6:	22 23       	and	r18, r18
    15e8:	09 f4       	brne	.+2      	; 0x15ec <queue_read_or_remove+0x32>
    15ea:	56 c0       	rjmp	.+172    	; 0x1698 <queue_read_or_remove+0xde>
    15ec:	7a 01       	movw	r14, r20
    15ee:	96 2e       	mov	r9, r22
    15f0:	5c 01       	movw	r10, r24
    15f2:	fc 01       	movw	r30, r24
    15f4:	00 81       	ld	r16, Z
    15f6:	11 81       	ldd	r17, Z+1	; 0x01
    15f8:	45 2b       	or	r20, r21
    15fa:	e1 f0       	breq	.+56     	; 0x1634 <queue_read_or_remove+0x7a>
    15fc:	01 15       	cp	r16, r1
    15fe:	11 05       	cpc	r17, r1
    1600:	09 f4       	brne	.+2      	; 0x1604 <queue_read_or_remove+0x4a>
    1602:	4d c0       	rjmp	.+154    	; 0x169e <queue_read_or_remove+0xe4>
    1604:	68 01       	movw	r12, r16
    1606:	01 c0       	rjmp	.+2      	; 0x160a <queue_read_or_remove+0x50>
    1608:	89 01       	movw	r16, r18
    160a:	d7 01       	movw	r26, r14
    160c:	12 96       	adiw	r26, 0x02	; 2
    160e:	6d 91       	ld	r22, X+
    1610:	7c 91       	ld	r23, X
    1612:	13 97       	sbiw	r26, 0x03	; 3
    1614:	ed 91       	ld	r30, X+
    1616:	fc 91       	ld	r31, X
    1618:	d8 01       	movw	r26, r16
    161a:	8d 91       	ld	r24, X+
    161c:	9c 91       	ld	r25, X
    161e:	19 95       	eicall
    1620:	81 11       	cpse	r24, r1
    1622:	09 c0       	rjmp	.+18     	; 0x1636 <queue_read_or_remove+0x7c>
    1624:	f8 01       	movw	r30, r16
    1626:	22 81       	ldd	r18, Z+2	; 0x02
    1628:	33 81       	ldd	r19, Z+3	; 0x03
    162a:	68 01       	movw	r12, r16
    162c:	21 15       	cp	r18, r1
    162e:	31 05       	cpc	r19, r1
    1630:	59 f7       	brne	.-42     	; 0x1608 <queue_read_or_remove+0x4e>
    1632:	35 c0       	rjmp	.+106    	; 0x169e <queue_read_or_remove+0xe4>
    1634:	68 01       	movw	r12, r16
    1636:	01 15       	cp	r16, r1
    1638:	11 05       	cpc	r17, r1
    163a:	99 f1       	breq	.+102    	; 0x16a2 <queue_read_or_remove+0xe8>
    163c:	91 10       	cpse	r9, r1
    163e:	31 c0       	rjmp	.+98     	; 0x16a2 <queue_read_or_remove+0xe8>
    1640:	d5 01       	movw	r26, r10
    1642:	8d 91       	ld	r24, X+
    1644:	9c 91       	ld	r25, X
    1646:	11 97       	sbiw	r26, 0x01	; 1
    1648:	08 17       	cp	r16, r24
    164a:	19 07       	cpc	r17, r25
    164c:	31 f4       	brne	.+12     	; 0x165a <queue_read_or_remove+0xa0>
    164e:	f8 01       	movw	r30, r16
    1650:	82 81       	ldd	r24, Z+2	; 0x02
    1652:	93 81       	ldd	r25, Z+3	; 0x03
    1654:	8d 93       	st	X+, r24
    1656:	9c 93       	st	X, r25
    1658:	08 c0       	rjmp	.+16     	; 0x166a <queue_read_or_remove+0xb0>
    165a:	d8 01       	movw	r26, r16
    165c:	12 96       	adiw	r26, 0x02	; 2
    165e:	8d 91       	ld	r24, X+
    1660:	9c 91       	ld	r25, X
    1662:	13 97       	sbiw	r26, 0x03	; 3
    1664:	f6 01       	movw	r30, r12
    1666:	93 83       	std	Z+3, r25	; 0x03
    1668:	82 83       	std	Z+2, r24	; 0x02
    166a:	d5 01       	movw	r26, r10
    166c:	12 96       	adiw	r26, 0x02	; 2
    166e:	8d 91       	ld	r24, X+
    1670:	9c 91       	ld	r25, X
    1672:	13 97       	sbiw	r26, 0x03	; 3
    1674:	08 17       	cp	r16, r24
    1676:	19 07       	cpc	r17, r25
    1678:	21 f4       	brne	.+8      	; 0x1682 <queue_read_or_remove+0xc8>
    167a:	13 96       	adiw	r26, 0x03	; 3
    167c:	dc 92       	st	X, r13
    167e:	ce 92       	st	-X, r12
    1680:	12 97       	sbiw	r26, 0x02	; 2
    1682:	f5 01       	movw	r30, r10
    1684:	84 81       	ldd	r24, Z+4	; 0x04
    1686:	81 50       	subi	r24, 0x01	; 1
    1688:	84 83       	std	Z+4, r24	; 0x04
    168a:	80 81       	ld	r24, Z
    168c:	91 81       	ldd	r25, Z+1	; 0x01
    168e:	89 2b       	or	r24, r25
    1690:	41 f4       	brne	.+16     	; 0x16a2 <queue_read_or_remove+0xe8>
    1692:	13 82       	std	Z+3, r1	; 0x03
    1694:	12 82       	std	Z+2, r1	; 0x02
    1696:	05 c0       	rjmp	.+10     	; 0x16a2 <queue_read_or_remove+0xe8>
    1698:	00 e0       	ldi	r16, 0x00	; 0
    169a:	10 e0       	ldi	r17, 0x00	; 0
    169c:	02 c0       	rjmp	.+4      	; 0x16a2 <queue_read_or_remove+0xe8>
    169e:	00 e0       	ldi	r16, 0x00	; 0
    16a0:	10 e0       	ldi	r17, 0x00	; 0
    16a2:	8f be       	out	0x3f, r8	; 63
    16a4:	c8 01       	movw	r24, r16
    16a6:	0f 90       	pop	r0
    16a8:	df 91       	pop	r29
    16aa:	cf 91       	pop	r28
    16ac:	1f 91       	pop	r17
    16ae:	0f 91       	pop	r16
    16b0:	ff 90       	pop	r15
    16b2:	ef 90       	pop	r14
    16b4:	df 90       	pop	r13
    16b6:	cf 90       	pop	r12
    16b8:	bf 90       	pop	r11
    16ba:	af 90       	pop	r10
    16bc:	9f 90       	pop	r9
    16be:	8f 90       	pop	r8
    16c0:	08 95       	ret

000016c2 <qmm_queue_init>:
    16c2:	fc 01       	movw	r30, r24
    16c4:	11 82       	std	Z+1, r1	; 0x01
    16c6:	10 82       	st	Z, r1
    16c8:	13 82       	std	Z+3, r1	; 0x03
    16ca:	12 82       	std	Z+2, r1	; 0x02
    16cc:	14 82       	std	Z+4, r1	; 0x04
    16ce:	08 95       	ret

000016d0 <qmm_queue_append>:
    16d0:	cf 93       	push	r28
    16d2:	df 93       	push	r29
    16d4:	1f 92       	push	r1
    16d6:	cd b7       	in	r28, 0x3d	; 61
    16d8:	de b7       	in	r29, 0x3e	; 62
    16da:	fc 01       	movw	r30, r24
    16dc:	8f b7       	in	r24, 0x3f	; 63
    16de:	89 83       	std	Y+1, r24	; 0x01
    16e0:	f8 94       	cli
    16e2:	99 81       	ldd	r25, Y+1	; 0x01
    16e4:	84 81       	ldd	r24, Z+4	; 0x04
    16e6:	81 11       	cpse	r24, r1
    16e8:	03 c0       	rjmp	.+6      	; 0x16f0 <qmm_queue_append+0x20>
    16ea:	71 83       	std	Z+1, r23	; 0x01
    16ec:	60 83       	st	Z, r22
    16ee:	06 c0       	rjmp	.+12     	; 0x16fc <qmm_queue_append+0x2c>
    16f0:	a2 81       	ldd	r26, Z+2	; 0x02
    16f2:	b3 81       	ldd	r27, Z+3	; 0x03
    16f4:	13 96       	adiw	r26, 0x03	; 3
    16f6:	7c 93       	st	X, r23
    16f8:	6e 93       	st	-X, r22
    16fa:	12 97       	sbiw	r26, 0x02	; 2
    16fc:	73 83       	std	Z+3, r23	; 0x03
    16fe:	62 83       	std	Z+2, r22	; 0x02
    1700:	db 01       	movw	r26, r22
    1702:	13 96       	adiw	r26, 0x03	; 3
    1704:	1c 92       	st	X, r1
    1706:	1e 92       	st	-X, r1
    1708:	12 97       	sbiw	r26, 0x02	; 2
    170a:	84 81       	ldd	r24, Z+4	; 0x04
    170c:	8f 5f       	subi	r24, 0xFF	; 255
    170e:	84 83       	std	Z+4, r24	; 0x04
    1710:	9f bf       	out	0x3f, r25	; 63
    1712:	0f 90       	pop	r0
    1714:	df 91       	pop	r29
    1716:	cf 91       	pop	r28
    1718:	08 95       	ret

0000171a <qmm_queue_remove>:
    171a:	ab 01       	movw	r20, r22
    171c:	60 e0       	ldi	r22, 0x00	; 0
    171e:	4d cf       	rjmp	.-358    	; 0x15ba <queue_read_or_remove>
    1720:	08 95       	ret

00001722 <__portable_avr_delay_cycles>:
    1722:	04 c0       	rjmp	.+8      	; 0x172c <__portable_avr_delay_cycles+0xa>
    1724:	61 50       	subi	r22, 0x01	; 1
    1726:	71 09       	sbc	r23, r1
    1728:	81 09       	sbc	r24, r1
    172a:	91 09       	sbc	r25, r1
    172c:	61 15       	cp	r22, r1
    172e:	71 05       	cpc	r23, r1
    1730:	81 05       	cpc	r24, r1
    1732:	91 05       	cpc	r25, r1
    1734:	b9 f7       	brne	.-18     	; 0x1724 <__portable_avr_delay_cycles+0x2>
    1736:	08 95       	ret

00001738 <switch_pll_on>:
    1738:	0f 93       	push	r16
    173a:	1f 93       	push	r17
    173c:	cf 93       	push	r28
    173e:	80 91 41 01 	lds	r24, 0x0141	; 0x800141 <__TEXT_REGION_LENGTH__+0x7c0141>
    1742:	8f 71       	andi	r24, 0x1F	; 31
    1744:	88 30       	cpi	r24, 0x08	; 8
    1746:	a1 f4       	brne	.+40     	; 0x1770 <switch_pll_on+0x38>
    1748:	81 e0       	ldi	r24, 0x01	; 1
    174a:	80 93 4f 01 	sts	0x014F, r24	; 0x80014f <__TEXT_REGION_LENGTH__+0x7c014f>
    174e:	89 e0       	ldi	r24, 0x09	; 9
    1750:	80 93 42 01 	sts	0x0142, r24	; 0x800142 <__TEXT_REGION_LENGTH__+0x7c0142>
    1754:	c3 e0       	ldi	r28, 0x03	; 3
    1756:	0f e4       	ldi	r16, 0x4F	; 79
    1758:	11 e0       	ldi	r17, 0x01	; 1
    175a:	f8 01       	movw	r30, r16
    175c:	80 81       	ld	r24, Z
    175e:	80 fd       	sbrc	r24, 0
    1760:	07 c0       	rjmp	.+14     	; 0x1770 <switch_pll_on+0x38>
    1762:	63 e9       	ldi	r22, 0x93	; 147
    1764:	70 e0       	ldi	r23, 0x00	; 0
    1766:	80 e0       	ldi	r24, 0x00	; 0
    1768:	90 e0       	ldi	r25, 0x00	; 0
    176a:	db df       	rcall	.-74     	; 0x1722 <__portable_avr_delay_cycles>
    176c:	c1 50       	subi	r28, 0x01	; 1
    176e:	a9 f7       	brne	.-22     	; 0x175a <switch_pll_on+0x22>
    1770:	cf 91       	pop	r28
    1772:	1f 91       	pop	r17
    1774:	0f 91       	pop	r16
    1776:	08 95       	ret

00001778 <set_trx_state>:
    1778:	1f 93       	push	r17
    177a:	cf 93       	push	r28
    177c:	df 93       	push	r29
    177e:	1f 92       	push	r1
    1780:	cd b7       	in	r28, 0x3d	; 61
    1782:	de b7       	in	r29, 0x3e	; 62
    1784:	18 2f       	mov	r17, r24
    1786:	80 91 a0 05 	lds	r24, 0x05A0	; 0x8005a0 <tal_trx_status>
    178a:	8f 30       	cpi	r24, 0x0F	; 15
    178c:	51 f5       	brne	.+84     	; 0x17e2 <set_trx_state+0x6a>
    178e:	1f 30       	cpi	r17, 0x0F	; 15
    1790:	09 f4       	brne	.+2      	; 0x1794 <set_trx_state+0x1c>
    1792:	38 c1       	rjmp	.+624    	; 0x1a04 <set_trx_state+0x28c>
    1794:	10 92 a4 05 	sts	0x05A4, r1	; 0x8005a4 <tal_awake_end_flag>
    1798:	81 ef       	ldi	r24, 0xF1	; 241
    179a:	9f e0       	ldi	r25, 0x0F	; 15
    179c:	e1 d2       	rcall	.+1474   	; 0x1d60 <pal_trx_irq_init_awake>
    179e:	8f b7       	in	r24, 0x3f	; 63
    17a0:	89 83       	std	Y+1, r24	; 0x01
    17a2:	f8 94       	cli
    17a4:	99 81       	ldd	r25, Y+1	; 0x01
    17a6:	78 94       	sei
    17a8:	e9 e3       	ldi	r30, 0x39	; 57
    17aa:	f1 e0       	ldi	r31, 0x01	; 1
    17ac:	80 81       	ld	r24, Z
    17ae:	8d 7f       	andi	r24, 0xFD	; 253
    17b0:	80 83       	st	Z, r24
    17b2:	80 91 a4 05 	lds	r24, 0x05A4	; 0x8005a4 <tal_awake_end_flag>
    17b6:	88 23       	and	r24, r24
    17b8:	e1 f3       	breq	.-8      	; 0x17b2 <set_trx_state+0x3a>
    17ba:	9f bf       	out	0x3f, r25	; 63
    17bc:	8f ef       	ldi	r24, 0xFF	; 255
    17be:	80 93 4f 01 	sts	0x014F, r24	; 0x80014f <__TEXT_REGION_LENGTH__+0x7c014f>
    17c2:	88 e4       	ldi	r24, 0x48	; 72
    17c4:	80 93 4e 01 	sts	0x014E, r24	; 0x80014e <__TEXT_REGION_LENGTH__+0x7c014e>
    17c8:	ed e4       	ldi	r30, 0x4D	; 77
    17ca:	f1 e0       	ldi	r31, 0x01	; 1
    17cc:	80 81       	ld	r24, Z
    17ce:	84 60       	ori	r24, 0x04	; 4
    17d0:	80 83       	st	Z, r24
    17d2:	18 30       	cpi	r17, 0x08	; 8
    17d4:	11 f0       	breq	.+4      	; 0x17da <set_trx_state+0x62>
    17d6:	13 30       	cpi	r17, 0x03	; 3
    17d8:	21 f4       	brne	.+8      	; 0x17e2 <set_trx_state+0x6a>
    17da:	88 e0       	ldi	r24, 0x08	; 8
    17dc:	80 93 a0 05 	sts	0x05A0, r24	; 0x8005a0 <tal_trx_status>
    17e0:	11 c1       	rjmp	.+546    	; 0x1a04 <set_trx_state+0x28c>
    17e2:	81 2f       	mov	r24, r17
    17e4:	90 e0       	ldi	r25, 0x00	; 0
    17e6:	fc 01       	movw	r30, r24
    17e8:	33 97       	sbiw	r30, 0x03	; 3
    17ea:	e7 31       	cpi	r30, 0x17	; 23
    17ec:	f1 05       	cpc	r31, r1
    17ee:	08 f0       	brcs	.+2      	; 0x17f2 <set_trx_state+0x7a>
    17f0:	5a c0       	rjmp	.+180    	; 0x18a6 <set_trx_state+0x12e>
    17f2:	88 27       	eor	r24, r24
    17f4:	e6 56       	subi	r30, 0x66	; 102
    17f6:	ff 4f       	sbci	r31, 0xFF	; 255
    17f8:	8f 4f       	sbci	r24, 0xFF	; 255
    17fa:	0c 94 fe 1c 	jmp	0x39fc	; 0x39fc <__tablejump2__>
    17fe:	83 e0       	ldi	r24, 0x03	; 3
    1800:	80 93 42 01 	sts	0x0142, r24	; 0x800142 <__TEXT_REGION_LENGTH__+0x7c0142>
    1804:	ed e4       	ldi	r30, 0x4D	; 77
    1806:	f1 e0       	ldi	r31, 0x01	; 1
    1808:	80 81       	ld	r24, Z
    180a:	8b 7f       	andi	r24, 0xFB	; 251
    180c:	80 83       	st	Z, r24
    180e:	0e 94 84 1d 	call	0x3b08	; 0x3b08 <rand>
    1812:	80 93 6d 01 	sts	0x016D, r24	; 0x80016d <__TEXT_REGION_LENGTH__+0x7c016d>
    1816:	ee e6       	ldi	r30, 0x6E	; 110
    1818:	f1 e0       	ldi	r31, 0x01	; 1
    181a:	80 81       	ld	r24, Z
    181c:	97 70       	andi	r25, 0x07	; 7
    181e:	88 7f       	andi	r24, 0xF8	; 248
    1820:	89 2b       	or	r24, r25
    1822:	80 83       	st	Z, r24
    1824:	8f ef       	ldi	r24, 0xFF	; 255
    1826:	80 93 4f 01 	sts	0x014F, r24	; 0x80014f <__TEXT_REGION_LENGTH__+0x7c014f>
    182a:	80 e8       	ldi	r24, 0x80	; 128
    182c:	80 93 4e 01 	sts	0x014E, r24	; 0x80014e <__TEXT_REGION_LENGTH__+0x7c014e>
    1830:	62 e0       	ldi	r22, 0x02	; 2
    1832:	70 e0       	ldi	r23, 0x00	; 0
    1834:	80 e0       	ldi	r24, 0x00	; 0
    1836:	90 e0       	ldi	r25, 0x00	; 0
    1838:	74 df       	rcall	.-280    	; 0x1722 <__portable_avr_delay_cycles>
    183a:	e9 e3       	ldi	r30, 0x39	; 57
    183c:	f1 e0       	ldi	r31, 0x01	; 1
    183e:	80 81       	ld	r24, Z
    1840:	82 60       	ori	r24, 0x02	; 2
    1842:	80 83       	st	Z, r24
    1844:	6f e2       	ldi	r22, 0x2F	; 47
    1846:	70 e0       	ldi	r23, 0x00	; 0
    1848:	80 e0       	ldi	r24, 0x00	; 0
    184a:	90 e0       	ldi	r25, 0x00	; 0
    184c:	6a df       	rcall	.-300    	; 0x1722 <__portable_avr_delay_cycles>
    184e:	8f e0       	ldi	r24, 0x0F	; 15
    1850:	80 93 a0 05 	sts	0x05A0, r24	; 0x8005a0 <tal_trx_status>
    1854:	d7 c0       	rjmp	.+430    	; 0x1a04 <set_trx_state+0x28c>
    1856:	80 91 a0 05 	lds	r24, 0x05A0	; 0x8005a0 <tal_trx_status>
    185a:	88 30       	cpi	r24, 0x08	; 8
    185c:	21 f1       	breq	.+72     	; 0x18a6 <set_trx_state+0x12e>
    185e:	88 e0       	ldi	r24, 0x08	; 8
    1860:	80 93 42 01 	sts	0x0142, r24	; 0x800142 <__TEXT_REGION_LENGTH__+0x7c0142>
    1864:	62 e0       	ldi	r22, 0x02	; 2
    1866:	70 e0       	ldi	r23, 0x00	; 0
    1868:	80 e0       	ldi	r24, 0x00	; 0
    186a:	90 e0       	ldi	r25, 0x00	; 0
    186c:	5a df       	rcall	.-332    	; 0x1722 <__portable_avr_delay_cycles>
    186e:	1b c0       	rjmp	.+54     	; 0x18a6 <set_trx_state+0x12e>
    1870:	80 91 a0 05 	lds	r24, 0x05A0	; 0x8005a0 <tal_trx_status>
    1874:	88 30       	cpi	r24, 0x08	; 8
    1876:	b9 f0       	breq	.+46     	; 0x18a6 <set_trx_state+0x12e>
    1878:	83 e0       	ldi	r24, 0x03	; 3
    187a:	80 93 42 01 	sts	0x0142, r24	; 0x800142 <__TEXT_REGION_LENGTH__+0x7c0142>
    187e:	62 e0       	ldi	r22, 0x02	; 2
    1880:	70 e0       	ldi	r23, 0x00	; 0
    1882:	80 e0       	ldi	r24, 0x00	; 0
    1884:	90 e0       	ldi	r25, 0x00	; 0
    1886:	4d df       	rcall	.-358    	; 0x1722 <__portable_avr_delay_cycles>
    1888:	0e c0       	rjmp	.+28     	; 0x18a6 <set_trx_state+0x12e>
    188a:	80 91 a0 05 	lds	r24, 0x05A0	; 0x8005a0 <tal_trx_status>
    188e:	88 30       	cpi	r24, 0x08	; 8
    1890:	49 f0       	breq	.+18     	; 0x18a4 <set_trx_state+0x12c>
    1892:	18 f4       	brcc	.+6      	; 0x189a <set_trx_state+0x122>
    1894:	86 30       	cpi	r24, 0x06	; 6
    1896:	39 f4       	brne	.+14     	; 0x18a6 <set_trx_state+0x12e>
    1898:	09 c0       	rjmp	.+18     	; 0x18ac <set_trx_state+0x134>
    189a:	86 31       	cpi	r24, 0x16	; 22
    189c:	39 f0       	breq	.+14     	; 0x18ac <set_trx_state+0x134>
    189e:	89 31       	cpi	r24, 0x19	; 25
    18a0:	11 f4       	brne	.+4      	; 0x18a6 <set_trx_state+0x12e>
    18a2:	04 c0       	rjmp	.+8      	; 0x18ac <set_trx_state+0x134>
    18a4:	49 df       	rcall	.-366    	; 0x1738 <switch_pll_on>
    18a6:	e1 e4       	ldi	r30, 0x41	; 65
    18a8:	f1 e0       	ldi	r31, 0x01	; 1
    18aa:	a6 c0       	rjmp	.+332    	; 0x19f8 <set_trx_state+0x280>
    18ac:	89 e0       	ldi	r24, 0x09	; 9
    18ae:	80 93 42 01 	sts	0x0142, r24	; 0x800142 <__TEXT_REGION_LENGTH__+0x7c0142>
    18b2:	62 e0       	ldi	r22, 0x02	; 2
    18b4:	70 e0       	ldi	r23, 0x00	; 0
    18b6:	80 e0       	ldi	r24, 0x00	; 0
    18b8:	90 e0       	ldi	r25, 0x00	; 0
    18ba:	33 df       	rcall	.-410    	; 0x1722 <__portable_avr_delay_cycles>
    18bc:	f4 cf       	rjmp	.-24     	; 0x18a6 <set_trx_state+0x12e>
    18be:	80 91 a0 05 	lds	r24, 0x05A0	; 0x8005a0 <tal_trx_status>
    18c2:	88 30       	cpi	r24, 0x08	; 8
    18c4:	19 f0       	breq	.+6      	; 0x18cc <set_trx_state+0x154>
    18c6:	89 30       	cpi	r24, 0x09	; 9
    18c8:	71 f3       	breq	.-36     	; 0x18a6 <set_trx_state+0x12e>
    18ca:	02 c0       	rjmp	.+4      	; 0x18d0 <set_trx_state+0x158>
    18cc:	35 df       	rcall	.-406    	; 0x1738 <switch_pll_on>
    18ce:	eb cf       	rjmp	.-42     	; 0x18a6 <set_trx_state+0x12e>
    18d0:	84 e0       	ldi	r24, 0x04	; 4
    18d2:	80 93 42 01 	sts	0x0142, r24	; 0x800142 <__TEXT_REGION_LENGTH__+0x7c0142>
    18d6:	e7 cf       	rjmp	.-50     	; 0x18a6 <set_trx_state+0x12e>
    18d8:	80 91 a0 05 	lds	r24, 0x05A0	; 0x8005a0 <tal_trx_status>
    18dc:	89 30       	cpi	r24, 0x09	; 9
    18de:	41 f0       	breq	.+16     	; 0x18f0 <set_trx_state+0x178>
    18e0:	18 f4       	brcc	.+6      	; 0x18e8 <set_trx_state+0x170>
    18e2:	88 30       	cpi	r24, 0x08	; 8
    18e4:	71 f0       	breq	.+28     	; 0x1902 <set_trx_state+0x18a>
    18e6:	df cf       	rjmp	.-66     	; 0x18a6 <set_trx_state+0x12e>
    18e8:	86 31       	cpi	r24, 0x16	; 22
    18ea:	11 f0       	breq	.+4      	; 0x18f0 <set_trx_state+0x178>
    18ec:	89 31       	cpi	r24, 0x19	; 25
    18ee:	d9 f6       	brne	.-74     	; 0x18a6 <set_trx_state+0x12e>
    18f0:	86 e0       	ldi	r24, 0x06	; 6
    18f2:	80 93 42 01 	sts	0x0142, r24	; 0x800142 <__TEXT_REGION_LENGTH__+0x7c0142>
    18f6:	62 e0       	ldi	r22, 0x02	; 2
    18f8:	70 e0       	ldi	r23, 0x00	; 0
    18fa:	80 e0       	ldi	r24, 0x00	; 0
    18fc:	90 e0       	ldi	r25, 0x00	; 0
    18fe:	11 df       	rcall	.-478    	; 0x1722 <__portable_avr_delay_cycles>
    1900:	d2 cf       	rjmp	.-92     	; 0x18a6 <set_trx_state+0x12e>
    1902:	1a df       	rcall	.-460    	; 0x1738 <switch_pll_on>
    1904:	86 e0       	ldi	r24, 0x06	; 6
    1906:	80 93 42 01 	sts	0x0142, r24	; 0x800142 <__TEXT_REGION_LENGTH__+0x7c0142>
    190a:	62 e0       	ldi	r22, 0x02	; 2
    190c:	70 e0       	ldi	r23, 0x00	; 0
    190e:	80 e0       	ldi	r24, 0x00	; 0
    1910:	90 e0       	ldi	r25, 0x00	; 0
    1912:	07 df       	rcall	.-498    	; 0x1722 <__portable_avr_delay_cycles>
    1914:	c8 cf       	rjmp	.-112    	; 0x18a6 <set_trx_state+0x12e>
    1916:	80 91 a0 05 	lds	r24, 0x05A0	; 0x8005a0 <tal_trx_status>
    191a:	88 30       	cpi	r24, 0x08	; 8
    191c:	91 f0       	breq	.+36     	; 0x1942 <set_trx_state+0x1ca>
    191e:	18 f4       	brcc	.+6      	; 0x1926 <set_trx_state+0x1ae>
    1920:	86 30       	cpi	r24, 0x06	; 6
    1922:	c9 f0       	breq	.+50     	; 0x1956 <set_trx_state+0x1de>
    1924:	c0 cf       	rjmp	.-128    	; 0x18a6 <set_trx_state+0x12e>
    1926:	89 30       	cpi	r24, 0x09	; 9
    1928:	19 f0       	breq	.+6      	; 0x1930 <set_trx_state+0x1b8>
    192a:	89 31       	cpi	r24, 0x19	; 25
    192c:	09 f0       	breq	.+2      	; 0x1930 <set_trx_state+0x1b8>
    192e:	bb cf       	rjmp	.-138    	; 0x18a6 <set_trx_state+0x12e>
    1930:	86 e1       	ldi	r24, 0x16	; 22
    1932:	80 93 42 01 	sts	0x0142, r24	; 0x800142 <__TEXT_REGION_LENGTH__+0x7c0142>
    1936:	62 e0       	ldi	r22, 0x02	; 2
    1938:	70 e0       	ldi	r23, 0x00	; 0
    193a:	80 e0       	ldi	r24, 0x00	; 0
    193c:	90 e0       	ldi	r25, 0x00	; 0
    193e:	f1 de       	rcall	.-542    	; 0x1722 <__portable_avr_delay_cycles>
    1940:	b2 cf       	rjmp	.-156    	; 0x18a6 <set_trx_state+0x12e>
    1942:	fa de       	rcall	.-524    	; 0x1738 <switch_pll_on>
    1944:	86 e1       	ldi	r24, 0x16	; 22
    1946:	80 93 42 01 	sts	0x0142, r24	; 0x800142 <__TEXT_REGION_LENGTH__+0x7c0142>
    194a:	62 e0       	ldi	r22, 0x02	; 2
    194c:	70 e0       	ldi	r23, 0x00	; 0
    194e:	80 e0       	ldi	r24, 0x00	; 0
    1950:	90 e0       	ldi	r25, 0x00	; 0
    1952:	e7 de       	rcall	.-562    	; 0x1722 <__portable_avr_delay_cycles>
    1954:	a8 cf       	rjmp	.-176    	; 0x18a6 <set_trx_state+0x12e>
    1956:	89 e0       	ldi	r24, 0x09	; 9
    1958:	80 93 42 01 	sts	0x0142, r24	; 0x800142 <__TEXT_REGION_LENGTH__+0x7c0142>
    195c:	62 e0       	ldi	r22, 0x02	; 2
    195e:	70 e0       	ldi	r23, 0x00	; 0
    1960:	80 e0       	ldi	r24, 0x00	; 0
    1962:	90 e0       	ldi	r25, 0x00	; 0
    1964:	de de       	rcall	.-580    	; 0x1722 <__portable_avr_delay_cycles>
    1966:	80 91 41 01 	lds	r24, 0x0141	; 0x800141 <__TEXT_REGION_LENGTH__+0x7c0141>
    196a:	8f 71       	andi	r24, 0x1F	; 31
    196c:	80 93 a0 05 	sts	0x05A0, r24	; 0x8005a0 <tal_trx_status>
    1970:	89 30       	cpi	r24, 0x09	; 9
    1972:	09 f0       	breq	.+2      	; 0x1976 <set_trx_state+0x1fe>
    1974:	47 c0       	rjmp	.+142    	; 0x1a04 <set_trx_state+0x28c>
    1976:	86 e1       	ldi	r24, 0x16	; 22
    1978:	80 93 42 01 	sts	0x0142, r24	; 0x800142 <__TEXT_REGION_LENGTH__+0x7c0142>
    197c:	62 e0       	ldi	r22, 0x02	; 2
    197e:	70 e0       	ldi	r23, 0x00	; 0
    1980:	80 e0       	ldi	r24, 0x00	; 0
    1982:	90 e0       	ldi	r25, 0x00	; 0
    1984:	ce de       	rcall	.-612    	; 0x1722 <__portable_avr_delay_cycles>
    1986:	8f cf       	rjmp	.-226    	; 0x18a6 <set_trx_state+0x12e>
    1988:	80 91 a0 05 	lds	r24, 0x05A0	; 0x8005a0 <tal_trx_status>
    198c:	88 30       	cpi	r24, 0x08	; 8
    198e:	51 f1       	breq	.+84     	; 0x19e4 <set_trx_state+0x26c>
    1990:	18 f4       	brcc	.+6      	; 0x1998 <set_trx_state+0x220>
    1992:	86 30       	cpi	r24, 0x06	; 6
    1994:	79 f0       	breq	.+30     	; 0x19b4 <set_trx_state+0x23c>
    1996:	87 cf       	rjmp	.-242    	; 0x18a6 <set_trx_state+0x12e>
    1998:	89 30       	cpi	r24, 0x09	; 9
    199a:	19 f0       	breq	.+6      	; 0x19a2 <set_trx_state+0x22a>
    199c:	86 31       	cpi	r24, 0x16	; 22
    199e:	51 f0       	breq	.+20     	; 0x19b4 <set_trx_state+0x23c>
    19a0:	82 cf       	rjmp	.-252    	; 0x18a6 <set_trx_state+0x12e>
    19a2:	89 e1       	ldi	r24, 0x19	; 25
    19a4:	80 93 42 01 	sts	0x0142, r24	; 0x800142 <__TEXT_REGION_LENGTH__+0x7c0142>
    19a8:	62 e0       	ldi	r22, 0x02	; 2
    19aa:	70 e0       	ldi	r23, 0x00	; 0
    19ac:	80 e0       	ldi	r24, 0x00	; 0
    19ae:	90 e0       	ldi	r25, 0x00	; 0
    19b0:	b8 de       	rcall	.-656    	; 0x1722 <__portable_avr_delay_cycles>
    19b2:	79 cf       	rjmp	.-270    	; 0x18a6 <set_trx_state+0x12e>
    19b4:	89 e0       	ldi	r24, 0x09	; 9
    19b6:	80 93 42 01 	sts	0x0142, r24	; 0x800142 <__TEXT_REGION_LENGTH__+0x7c0142>
    19ba:	62 e0       	ldi	r22, 0x02	; 2
    19bc:	70 e0       	ldi	r23, 0x00	; 0
    19be:	80 e0       	ldi	r24, 0x00	; 0
    19c0:	90 e0       	ldi	r25, 0x00	; 0
    19c2:	af de       	rcall	.-674    	; 0x1722 <__portable_avr_delay_cycles>
    19c4:	80 91 41 01 	lds	r24, 0x0141	; 0x800141 <__TEXT_REGION_LENGTH__+0x7c0141>
    19c8:	8f 71       	andi	r24, 0x1F	; 31
    19ca:	80 93 a0 05 	sts	0x05A0, r24	; 0x8005a0 <tal_trx_status>
    19ce:	89 30       	cpi	r24, 0x09	; 9
    19d0:	c9 f4       	brne	.+50     	; 0x1a04 <set_trx_state+0x28c>
    19d2:	89 e1       	ldi	r24, 0x19	; 25
    19d4:	80 93 42 01 	sts	0x0142, r24	; 0x800142 <__TEXT_REGION_LENGTH__+0x7c0142>
    19d8:	62 e0       	ldi	r22, 0x02	; 2
    19da:	70 e0       	ldi	r23, 0x00	; 0
    19dc:	80 e0       	ldi	r24, 0x00	; 0
    19de:	90 e0       	ldi	r25, 0x00	; 0
    19e0:	a0 de       	rcall	.-704    	; 0x1722 <__portable_avr_delay_cycles>
    19e2:	61 cf       	rjmp	.-318    	; 0x18a6 <set_trx_state+0x12e>
    19e4:	a9 de       	rcall	.-686    	; 0x1738 <switch_pll_on>
    19e6:	89 e1       	ldi	r24, 0x19	; 25
    19e8:	80 93 42 01 	sts	0x0142, r24	; 0x800142 <__TEXT_REGION_LENGTH__+0x7c0142>
    19ec:	62 e0       	ldi	r22, 0x02	; 2
    19ee:	70 e0       	ldi	r23, 0x00	; 0
    19f0:	80 e0       	ldi	r24, 0x00	; 0
    19f2:	90 e0       	ldi	r25, 0x00	; 0
    19f4:	96 de       	rcall	.-724    	; 0x1722 <__portable_avr_delay_cycles>
    19f6:	57 cf       	rjmp	.-338    	; 0x18a6 <set_trx_state+0x12e>
    19f8:	80 81       	ld	r24, Z
    19fa:	8f 71       	andi	r24, 0x1F	; 31
    19fc:	80 93 a0 05 	sts	0x05A0, r24	; 0x8005a0 <tal_trx_status>
    1a00:	8f 31       	cpi	r24, 0x1F	; 31
    1a02:	d1 f3       	breq	.-12     	; 0x19f8 <set_trx_state+0x280>
    1a04:	0f 90       	pop	r0
    1a06:	df 91       	pop	r29
    1a08:	cf 91       	pop	r28
    1a0a:	1f 91       	pop	r17
    1a0c:	08 95       	ret

00001a0e <tal_task>:
    1a0e:	cf 93       	push	r28
    1a10:	df 93       	push	r29
    1a12:	80 91 79 05 	lds	r24, 0x0579	; 0x800579 <tal_rx_on_required>
    1a16:	88 23       	and	r24, r24
    1a18:	19 f1       	breq	.+70     	; 0x1a60 <tal_task+0x52>
    1a1a:	80 91 a5 05 	lds	r24, 0x05A5	; 0x8005a5 <tal_state>
    1a1e:	81 11       	cpse	r24, r1
    1a20:	1f c0       	rjmp	.+62     	; 0x1a60 <tal_task+0x52>
    1a22:	80 91 69 04 	lds	r24, 0x0469	; 0x800469 <tal_rx_buffer>
    1a26:	90 91 6a 04 	lds	r25, 0x046A	; 0x80046a <tal_rx_buffer+0x1>
    1a2a:	89 2b       	or	r24, r25
    1a2c:	41 f4       	brne	.+16     	; 0x1a3e <tal_task+0x30>
    1a2e:	8b e8       	ldi	r24, 0x8B	; 139
    1a30:	b7 dd       	rcall	.-1170   	; 0x15a0 <bmm_buffer_alloc>
    1a32:	90 93 6a 04 	sts	0x046A, r25	; 0x80046a <tal_rx_buffer+0x1>
    1a36:	80 93 69 04 	sts	0x0469, r24	; 0x800469 <tal_rx_buffer>
    1a3a:	89 2b       	or	r24, r25
    1a3c:	89 f0       	breq	.+34     	; 0x1a60 <tal_task+0x52>
    1a3e:	10 92 79 05 	sts	0x0579, r1	; 0x800579 <tal_rx_on_required>
    1a42:	cc e4       	ldi	r28, 0x4C	; 76
    1a44:	d1 e0       	ldi	r29, 0x01	; 1
    1a46:	88 81       	ld	r24, Y
    1a48:	8f 77       	andi	r24, 0x7F	; 127
    1a4a:	88 83       	st	Y, r24
    1a4c:	63 e0       	ldi	r22, 0x03	; 3
    1a4e:	70 e0       	ldi	r23, 0x00	; 0
    1a50:	80 e0       	ldi	r24, 0x00	; 0
    1a52:	90 e0       	ldi	r25, 0x00	; 0
    1a54:	66 de       	rcall	.-820    	; 0x1722 <__portable_avr_delay_cycles>
    1a56:	88 81       	ld	r24, Y
    1a58:	80 68       	ori	r24, 0x80	; 128
    1a5a:	88 83       	st	Y, r24
    1a5c:	86 e1       	ldi	r24, 0x16	; 22
    1a5e:	8c de       	rcall	.-744    	; 0x1778 <set_trx_state>
    1a60:	80 91 7e 05 	lds	r24, 0x057E	; 0x80057e <tal_incoming_frame_queue+0x4>
    1a64:	88 23       	and	r24, r24
    1a66:	41 f0       	breq	.+16     	; 0x1a78 <tal_task+0x6a>
    1a68:	60 e0       	ldi	r22, 0x00	; 0
    1a6a:	70 e0       	ldi	r23, 0x00	; 0
    1a6c:	8a e7       	ldi	r24, 0x7A	; 122
    1a6e:	95 e0       	ldi	r25, 0x05	; 5
    1a70:	54 de       	rcall	.-856    	; 0x171a <qmm_queue_remove>
    1a72:	00 97       	sbiw	r24, 0x00	; 0
    1a74:	09 f0       	breq	.+2      	; 0x1a78 <tal_task+0x6a>
    1a76:	25 d5       	rcall	.+2634   	; 0x24c2 <process_incoming_frame>
    1a78:	80 91 a5 05 	lds	r24, 0x05A5	; 0x8005a5 <tal_state>
    1a7c:	82 30       	cpi	r24, 0x02	; 2
    1a7e:	09 f4       	brne	.+2      	; 0x1a82 <tal_task+0x74>
    1a80:	87 d5       	rcall	.+2830   	; 0x2590 <tx_done_handling>
    1a82:	df 91       	pop	r29
    1a84:	cf 91       	pop	r28
    1a86:	08 95       	ret

00001a88 <__portable_avr_delay_cycles>:
    1a88:	04 c0       	rjmp	.+8      	; 0x1a92 <__portable_avr_delay_cycles+0xa>
    1a8a:	61 50       	subi	r22, 0x01	; 1
    1a8c:	71 09       	sbc	r23, r1
    1a8e:	81 09       	sbc	r24, r1
    1a90:	91 09       	sbc	r25, r1
    1a92:	61 15       	cp	r22, r1
    1a94:	71 05       	cpc	r23, r1
    1a96:	81 05       	cpc	r24, r1
    1a98:	91 05       	cpc	r25, r1
    1a9a:	b9 f7       	brne	.-18     	; 0x1a8a <__portable_avr_delay_cycles+0x2>
    1a9c:	08 95       	ret

00001a9e <tal_generate_rand_seed>:
    1a9e:	ff 92       	push	r15
    1aa0:	0f 93       	push	r16
    1aa2:	1f 93       	push	r17
    1aa4:	cf 93       	push	r28
    1aa6:	df 93       	push	r29
    1aa8:	86 e0       	ldi	r24, 0x06	; 6
    1aaa:	66 de       	rcall	.-820    	; 0x1778 <set_trx_state>
    1aac:	86 30       	cpi	r24, 0x06	; 6
    1aae:	e1 f7       	brne	.-8      	; 0x1aa8 <tal_generate_rand_seed+0xa>
    1ab0:	e5 e5       	ldi	r30, 0x55	; 85
    1ab2:	f1 e0       	ldi	r31, 0x01	; 1
    1ab4:	80 81       	ld	r24, Z
    1ab6:	8f 77       	andi	r24, 0x7F	; 127
    1ab8:	80 83       	st	Z, r24
    1aba:	10 92 4e 01 	sts	0x014E, r1	; 0x80014e <__TEXT_REGION_LENGTH__+0x7c014e>
    1abe:	68 94       	set
    1ac0:	ff 24       	eor	r15, r15
    1ac2:	f3 f8       	bld	r15, 3
    1ac4:	c0 e0       	ldi	r28, 0x00	; 0
    1ac6:	d0 e0       	ldi	r29, 0x00	; 0
    1ac8:	06 e4       	ldi	r16, 0x46	; 70
    1aca:	11 e0       	ldi	r17, 0x01	; 1
    1acc:	f8 01       	movw	r30, r16
    1ace:	90 81       	ld	r25, Z
    1ad0:	cc 0f       	add	r28, r28
    1ad2:	dd 1f       	adc	r29, r29
    1ad4:	cc 0f       	add	r28, r28
    1ad6:	dd 1f       	adc	r29, r29
    1ad8:	90 76       	andi	r25, 0x60	; 96
    1ada:	29 2f       	mov	r18, r25
    1adc:	30 e0       	ldi	r19, 0x00	; 0
    1ade:	36 95       	lsr	r19
    1ae0:	27 95       	ror	r18
    1ae2:	32 95       	swap	r19
    1ae4:	22 95       	swap	r18
    1ae6:	2f 70       	andi	r18, 0x0F	; 15
    1ae8:	23 27       	eor	r18, r19
    1aea:	3f 70       	andi	r19, 0x0F	; 15
    1aec:	23 27       	eor	r18, r19
    1aee:	c2 2b       	or	r28, r18
    1af0:	d3 2b       	or	r29, r19
    1af2:	62 e0       	ldi	r22, 0x02	; 2
    1af4:	70 e0       	ldi	r23, 0x00	; 0
    1af6:	80 e0       	ldi	r24, 0x00	; 0
    1af8:	90 e0       	ldi	r25, 0x00	; 0
    1afa:	c6 df       	rcall	.-116    	; 0x1a88 <__portable_avr_delay_cycles>
    1afc:	fa 94       	dec	r15
    1afe:	f1 10       	cpse	r15, r1
    1b00:	e5 cf       	rjmp	.-54     	; 0x1acc <tal_generate_rand_seed+0x2e>
    1b02:	83 e0       	ldi	r24, 0x03	; 3
    1b04:	39 de       	rcall	.-910    	; 0x1778 <set_trx_state>
    1b06:	8f ef       	ldi	r24, 0xFF	; 255
    1b08:	80 93 4f 01 	sts	0x014F, r24	; 0x80014f <__TEXT_REGION_LENGTH__+0x7c014f>
    1b0c:	88 e4       	ldi	r24, 0x48	; 72
    1b0e:	80 93 4e 01 	sts	0x014E, r24	; 0x80014e <__TEXT_REGION_LENGTH__+0x7c014e>
    1b12:	ce 01       	movw	r24, r28
    1b14:	0e 94 87 1d 	call	0x3b0e	; 0x3b0e <srand>
    1b18:	df 91       	pop	r29
    1b1a:	cf 91       	pop	r28
    1b1c:	1f 91       	pop	r17
    1b1e:	0f 91       	pop	r16
    1b20:	ff 90       	pop	r15
    1b22:	08 95       	ret

00001b24 <internal_tal_reset>:
    1b24:	ff 92       	push	r15
    1b26:	0f 93       	push	r16
    1b28:	1f 93       	push	r17
    1b2a:	cf 93       	push	r28
    1b2c:	df 93       	push	r29
    1b2e:	f8 2e       	mov	r15, r24
    1b30:	c9 e3       	ldi	r28, 0x39	; 57
    1b32:	d1 e0       	ldi	r29, 0x01	; 1
    1b34:	88 81       	ld	r24, Y
    1b36:	8d 7f       	andi	r24, 0xFD	; 253
    1b38:	88 83       	st	Y, r24
    1b3a:	61 e4       	ldi	r22, 0x41	; 65
    1b3c:	71 e0       	ldi	r23, 0x01	; 1
    1b3e:	80 e0       	ldi	r24, 0x00	; 0
    1b40:	90 e0       	ldi	r25, 0x00	; 0
    1b42:	a2 df       	rcall	.-188    	; 0x1a88 <__portable_avr_delay_cycles>
    1b44:	88 81       	ld	r24, Y
    1b46:	8e 7f       	andi	r24, 0xFE	; 254
    1b48:	88 83       	st	Y, r24
    1b4a:	62 e0       	ldi	r22, 0x02	; 2
    1b4c:	70 e0       	ldi	r23, 0x00	; 0
    1b4e:	80 e0       	ldi	r24, 0x00	; 0
    1b50:	90 e0       	ldi	r25, 0x00	; 0
    1b52:	9a df       	rcall	.-204    	; 0x1a88 <__portable_avr_delay_cycles>
    1b54:	88 81       	ld	r24, Y
    1b56:	81 60       	ori	r24, 0x01	; 1
    1b58:	88 83       	st	Y, r24
    1b5a:	66 e8       	ldi	r22, 0x86	; 134
    1b5c:	70 e0       	ldi	r23, 0x00	; 0
    1b5e:	80 e0       	ldi	r24, 0x00	; 0
    1b60:	90 e0       	ldi	r25, 0x00	; 0
    1b62:	92 df       	rcall	.-220    	; 0x1a88 <__portable_avr_delay_cycles>
    1b64:	80 91 41 01 	lds	r24, 0x0141	; 0x800141 <__TEXT_REGION_LENGTH__+0x7c0141>
    1b68:	8f 71       	andi	r24, 0x1F	; 31
    1b6a:	ca e0       	ldi	r28, 0x0A	; 10
    1b6c:	01 e4       	ldi	r16, 0x41	; 65
    1b6e:	11 e0       	ldi	r17, 0x01	; 1
    1b70:	0a c0       	rjmp	.+20     	; 0x1b86 <internal_tal_reset+0x62>
    1b72:	66 e8       	ldi	r22, 0x86	; 134
    1b74:	70 e0       	ldi	r23, 0x00	; 0
    1b76:	80 e0       	ldi	r24, 0x00	; 0
    1b78:	90 e0       	ldi	r25, 0x00	; 0
    1b7a:	86 df       	rcall	.-244    	; 0x1a88 <__portable_avr_delay_cycles>
    1b7c:	f8 01       	movw	r30, r16
    1b7e:	80 81       	ld	r24, Z
    1b80:	8f 71       	andi	r24, 0x1F	; 31
    1b82:	c1 50       	subi	r28, 0x01	; 1
    1b84:	c9 f1       	breq	.+114    	; 0x1bf8 <internal_tal_reset+0xd4>
    1b86:	88 30       	cpi	r24, 0x08	; 8
    1b88:	a1 f7       	brne	.-24     	; 0x1b72 <internal_tal_reset+0x4e>
    1b8a:	80 93 a0 05 	sts	0x05A0, r24	; 0x8005a0 <tal_trx_status>
    1b8e:	87 df       	rcall	.-242    	; 0x1a9e <tal_generate_rand_seed>
    1b90:	0e 94 84 1d 	call	0x3b08	; 0x3b08 <rand>
    1b94:	80 93 6d 01 	sts	0x016D, r24	; 0x80016d <__TEXT_REGION_LENGTH__+0x7c016d>
    1b98:	ee e6       	ldi	r30, 0x6E	; 110
    1b9a:	f1 e0       	ldi	r31, 0x01	; 1
    1b9c:	80 81       	ld	r24, Z
    1b9e:	97 70       	andi	r25, 0x07	; 7
    1ba0:	88 7f       	andi	r24, 0xF8	; 248
    1ba2:	89 2b       	or	r24, r25
    1ba4:	80 83       	st	Z, r24
    1ba6:	80 81       	ld	r24, Z
    1ba8:	80 62       	ori	r24, 0x20	; 32
    1baa:	80 83       	st	Z, r24
    1bac:	ec e4       	ldi	r30, 0x4C	; 76
    1bae:	f1 e0       	ldi	r31, 0x01	; 1
    1bb0:	80 81       	ld	r24, Z
    1bb2:	80 68       	ori	r24, 0x80	; 128
    1bb4:	80 83       	st	Z, r24
    1bb6:	88 e4       	ldi	r24, 0x48	; 72
    1bb8:	80 93 4e 01 	sts	0x014E, r24	; 0x80014e <__TEXT_REGION_LENGTH__+0x7c014e>
    1bbc:	8f ef       	ldi	r24, 0xFF	; 255
    1bbe:	80 93 56 01 	sts	0x0156, r24	; 0x800156 <__TEXT_REGION_LENGTH__+0x7c0156>
    1bc2:	ed e4       	ldi	r30, 0x4D	; 77
    1bc4:	f1 e0       	ldi	r31, 0x01	; 1
    1bc6:	80 81       	ld	r24, Z
    1bc8:	8c 7f       	andi	r24, 0xFC	; 252
    1bca:	82 60       	ori	r24, 0x02	; 2
    1bcc:	80 83       	st	Z, r24
    1bce:	aa e4       	ldi	r26, 0x4A	; 74
    1bd0:	b1 e0       	ldi	r27, 0x01	; 1
    1bd2:	8c 91       	ld	r24, X
    1bd4:	80 7f       	andi	r24, 0xF0	; 240
    1bd6:	83 60       	ori	r24, 0x03	; 3
    1bd8:	8c 93       	st	X, r24
    1bda:	80 81       	ld	r24, Z
    1bdc:	88 60       	ori	r24, 0x08	; 8
    1bde:	80 83       	st	Z, r24
    1be0:	80 81       	ld	r24, Z
    1be2:	84 60       	ori	r24, 0x04	; 4
    1be4:	80 83       	st	Z, r24
    1be6:	f1 10       	cpse	r15, r1
    1be8:	30 d2       	rcall	.+1120   	; 0x204a <init_tal_pib>
    1bea:	7d d2       	rcall	.+1274   	; 0x20e6 <write_all_tal_pib_to_trx>
    1bec:	10 92 a5 05 	sts	0x05A5, r1	; 0x8005a5 <tal_state>
    1bf0:	10 92 79 05 	sts	0x0579, r1	; 0x800579 <tal_rx_on_required>
    1bf4:	80 e0       	ldi	r24, 0x00	; 0
    1bf6:	01 c0       	rjmp	.+2      	; 0x1bfa <internal_tal_reset+0xd6>
    1bf8:	85 e8       	ldi	r24, 0x85	; 133
    1bfa:	df 91       	pop	r29
    1bfc:	cf 91       	pop	r28
    1bfe:	1f 91       	pop	r17
    1c00:	0f 91       	pop	r16
    1c02:	ff 90       	pop	r15
    1c04:	08 95       	ret

00001c06 <tal_init>:
    1c06:	cf 92       	push	r12
    1c08:	df 92       	push	r13
    1c0a:	ef 92       	push	r14
    1c0c:	ff 92       	push	r15
    1c0e:	0f 93       	push	r16
    1c10:	1f 93       	push	r17
    1c12:	cf 93       	push	r28
    1c14:	df 93       	push	r29
    1c16:	14 be       	out	0x34, r1	; 52
    1c18:	80 e1       	ldi	r24, 0x10	; 16
    1c1a:	80 93 35 01 	sts	0x0135, r24	; 0x800135 <__TEXT_REGION_LENGTH__+0x7c0135>
    1c1e:	80 93 34 01 	sts	0x0134, r24	; 0x800134 <__TEXT_REGION_LENGTH__+0x7c0134>
    1c22:	80 93 33 01 	sts	0x0133, r24	; 0x800133 <__TEXT_REGION_LENGTH__+0x7c0133>
    1c26:	80 93 32 01 	sts	0x0132, r24	; 0x800132 <__TEXT_REGION_LENGTH__+0x7c0132>
    1c2a:	92 dc       	rcall	.-1756   	; 0x1550 <pal_init>
    1c2c:	81 11       	cpse	r24, r1
    1c2e:	6d c0       	rjmp	.+218    	; 0x1d0a <tal_init+0x104>
    1c30:	60 e4       	ldi	r22, 0x40	; 64
    1c32:	81 e0       	ldi	r24, 0x01	; 1
    1c34:	49 d8       	rcall	.-3950   	; 0xcc8 <sysclk_enable_module>
    1c36:	c9 e3       	ldi	r28, 0x39	; 57
    1c38:	d1 e0       	ldi	r29, 0x01	; 1
    1c3a:	88 81       	ld	r24, Y
    1c3c:	81 60       	ori	r24, 0x01	; 1
    1c3e:	88 83       	st	Y, r24
    1c40:	88 81       	ld	r24, Y
    1c42:	8d 7f       	andi	r24, 0xFD	; 253
    1c44:	88 83       	st	Y, r24
    1c46:	6b ef       	ldi	r22, 0xFB	; 251
    1c48:	71 e0       	ldi	r23, 0x01	; 1
    1c4a:	80 e0       	ldi	r24, 0x00	; 0
    1c4c:	90 e0       	ldi	r25, 0x00	; 0
    1c4e:	1c df       	rcall	.-456    	; 0x1a88 <__portable_avr_delay_cycles>
    1c50:	88 81       	ld	r24, Y
    1c52:	8e 7f       	andi	r24, 0xFE	; 254
    1c54:	88 83       	st	Y, r24
    1c56:	62 e0       	ldi	r22, 0x02	; 2
    1c58:	70 e0       	ldi	r23, 0x00	; 0
    1c5a:	80 e0       	ldi	r24, 0x00	; 0
    1c5c:	90 e0       	ldi	r25, 0x00	; 0
    1c5e:	14 df       	rcall	.-472    	; 0x1a88 <__portable_avr_delay_cycles>
    1c60:	88 81       	ld	r24, Y
    1c62:	81 60       	ori	r24, 0x01	; 1
    1c64:	88 83       	st	Y, r24
    1c66:	66 e8       	ldi	r22, 0x86	; 134
    1c68:	70 e0       	ldi	r23, 0x00	; 0
    1c6a:	80 e0       	ldi	r24, 0x00	; 0
    1c6c:	90 e0       	ldi	r25, 0x00	; 0
    1c6e:	0c df       	rcall	.-488    	; 0x1a88 <__portable_avr_delay_cycles>
    1c70:	80 91 41 01 	lds	r24, 0x0141	; 0x800141 <__TEXT_REGION_LENGTH__+0x7c0141>
    1c74:	8f 71       	andi	r24, 0x1F	; 31
    1c76:	ca e0       	ldi	r28, 0x0A	; 10
    1c78:	01 e4       	ldi	r16, 0x41	; 65
    1c7a:	11 e0       	ldi	r17, 0x01	; 1
    1c7c:	0b c0       	rjmp	.+22     	; 0x1c94 <tal_init+0x8e>
    1c7e:	66 e8       	ldi	r22, 0x86	; 134
    1c80:	70 e0       	ldi	r23, 0x00	; 0
    1c82:	80 e0       	ldi	r24, 0x00	; 0
    1c84:	90 e0       	ldi	r25, 0x00	; 0
    1c86:	00 df       	rcall	.-512    	; 0x1a88 <__portable_avr_delay_cycles>
    1c88:	f8 01       	movw	r30, r16
    1c8a:	80 81       	ld	r24, Z
    1c8c:	8f 71       	andi	r24, 0x1F	; 31
    1c8e:	c1 50       	subi	r28, 0x01	; 1
    1c90:	09 f4       	brne	.+2      	; 0x1c94 <tal_init+0x8e>
    1c92:	51 c0       	rjmp	.+162    	; 0x1d36 <tal_init+0x130>
    1c94:	88 30       	cpi	r24, 0x08	; 8
    1c96:	99 f7       	brne	.-26     	; 0x1c7e <tal_init+0x78>
    1c98:	80 93 a0 05 	sts	0x05A0, r24	; 0x8005a0 <tal_trx_status>
    1c9c:	80 91 5c 01 	lds	r24, 0x015C	; 0x80015c <__TEXT_REGION_LENGTH__+0x7c015c>
    1ca0:	84 39       	cpi	r24, 0x94	; 148
    1ca2:	09 f0       	breq	.+2      	; 0x1ca6 <tal_init+0xa0>
    1ca4:	48 c0       	rjmp	.+144    	; 0x1d36 <tal_init+0x130>
    1ca6:	35 c0       	rjmp	.+106    	; 0x1d12 <tal_init+0x10c>
    1ca8:	0e 94 84 1d 	call	0x3b08	; 0x3b08 <rand>
    1cac:	f8 01       	movw	r30, r16
    1cae:	81 93       	st	Z+, r24
    1cb0:	8f 01       	movw	r16, r30
    1cb2:	ec 15       	cp	r30, r12
    1cb4:	fd 05       	cpc	r31, r13
    1cb6:	c1 f7       	brne	.-16     	; 0x1ca8 <tal_init+0xa2>
    1cb8:	f7 01       	movw	r30, r14
    1cba:	20 81       	ld	r18, Z
    1cbc:	31 81       	ldd	r19, Z+1	; 0x01
    1cbe:	42 81       	ldd	r20, Z+2	; 0x02
    1cc0:	53 81       	ldd	r21, Z+3	; 0x03
    1cc2:	64 81       	ldd	r22, Z+4	; 0x04
    1cc4:	75 81       	ldd	r23, Z+5	; 0x05
    1cc6:	86 81       	ldd	r24, Z+6	; 0x06
    1cc8:	97 81       	ldd	r25, Z+7	; 0x07
    1cca:	af ef       	ldi	r26, 0xFF	; 255
    1ccc:	0e 94 25 1d 	call	0x3a4a	; 0x3a4a <__adddi3_s8>
    1cd0:	ad ef       	ldi	r26, 0xFD	; 253
    1cd2:	0e 94 31 1d 	call	0x3a62	; 0x3a62 <__cmpdi2_s8>
    1cd6:	21 f0       	breq	.+8      	; 0x1ce0 <tal_init+0xda>
    1cd8:	18 f0       	brcs	.+6      	; 0x1ce0 <tal_init+0xda>
    1cda:	01 e8       	ldi	r16, 0x81	; 129
    1cdc:	15 e0       	ldi	r17, 0x05	; 5
    1cde:	e4 cf       	rjmp	.-56     	; 0x1ca8 <tal_init+0xa2>
    1ce0:	8f ec       	ldi	r24, 0xCF	; 207
    1ce2:	9f e0       	ldi	r25, 0x0F	; 15
    1ce4:	38 d0       	rcall	.+112    	; 0x1d56 <pal_trx_irq_init_rx_end>
    1ce6:	80 ee       	ldi	r24, 0xE0	; 224
    1ce8:	9f e0       	ldi	r25, 0x0F	; 15
    1cea:	30 d0       	rcall	.+96     	; 0x1d4c <pal_trx_irq_init_tx_end>
    1cec:	81 ef       	ldi	r24, 0xF1	; 241
    1cee:	9f e0       	ldi	r25, 0x0F	; 15
    1cf0:	37 d0       	rcall	.+110    	; 0x1d60 <pal_trx_irq_init_awake>
    1cf2:	32 dc       	rcall	.-1948   	; 0x1558 <bmm_buffer_init>
    1cf4:	8b e8       	ldi	r24, 0x8B	; 139
    1cf6:	54 dc       	rcall	.-1880   	; 0x15a0 <bmm_buffer_alloc>
    1cf8:	90 93 6a 04 	sts	0x046A, r25	; 0x80046a <tal_rx_buffer+0x1>
    1cfc:	80 93 69 04 	sts	0x0469, r24	; 0x800469 <tal_rx_buffer>
    1d00:	8a e7       	ldi	r24, 0x7A	; 122
    1d02:	95 e0       	ldi	r25, 0x05	; 5
    1d04:	de dc       	rcall	.-1604   	; 0x16c2 <qmm_queue_init>
    1d06:	da d5       	rcall	.+2996   	; 0x28bc <tfa_init>
    1d08:	17 c0       	rjmp	.+46     	; 0x1d38 <tal_init+0x132>
    1d0a:	c5 e8       	ldi	r28, 0x85	; 133
    1d0c:	15 c0       	rjmp	.+42     	; 0x1d38 <tal_init+0x132>
    1d0e:	c5 e8       	ldi	r28, 0x85	; 133
    1d10:	13 c0       	rjmp	.+38     	; 0x1d38 <tal_init+0x132>
    1d12:	81 e0       	ldi	r24, 0x01	; 1
    1d14:	07 df       	rcall	.-498    	; 0x1b24 <internal_tal_reset>
    1d16:	c8 2f       	mov	r28, r24
    1d18:	81 11       	cpse	r24, r1
    1d1a:	f9 cf       	rjmp	.-14     	; 0x1d0e <tal_init+0x108>
    1d1c:	0f 2e       	mov	r0, r31
    1d1e:	f1 e8       	ldi	r31, 0x81	; 129
    1d20:	ef 2e       	mov	r14, r31
    1d22:	f5 e0       	ldi	r31, 0x05	; 5
    1d24:	ff 2e       	mov	r15, r31
    1d26:	f0 2d       	mov	r31, r0
    1d28:	0f 2e       	mov	r0, r31
    1d2a:	f9 e8       	ldi	r31, 0x89	; 137
    1d2c:	cf 2e       	mov	r12, r31
    1d2e:	f5 e0       	ldi	r31, 0x05	; 5
    1d30:	df 2e       	mov	r13, r31
    1d32:	f0 2d       	mov	r31, r0
    1d34:	c1 cf       	rjmp	.-126    	; 0x1cb8 <tal_init+0xb2>
    1d36:	c5 e8       	ldi	r28, 0x85	; 133
    1d38:	8c 2f       	mov	r24, r28
    1d3a:	df 91       	pop	r29
    1d3c:	cf 91       	pop	r28
    1d3e:	1f 91       	pop	r17
    1d40:	0f 91       	pop	r16
    1d42:	ff 90       	pop	r15
    1d44:	ef 90       	pop	r14
    1d46:	df 90       	pop	r13
    1d48:	cf 90       	pop	r12
    1d4a:	08 95       	ret

00001d4c <pal_trx_irq_init_tx_end>:
    1d4c:	90 93 72 04 	sts	0x0472, r25	; 0x800472 <irq_hdl_trx_tx_end+0x1>
    1d50:	80 93 71 04 	sts	0x0471, r24	; 0x800471 <irq_hdl_trx_tx_end>
    1d54:	08 95       	ret

00001d56 <pal_trx_irq_init_rx_end>:
    1d56:	90 93 70 04 	sts	0x0470, r25	; 0x800470 <irq_hdl_trx_rx_end+0x1>
    1d5a:	80 93 6f 04 	sts	0x046F, r24	; 0x80046f <irq_hdl_trx_rx_end>
    1d5e:	08 95       	ret

00001d60 <pal_trx_irq_init_awake>:
    1d60:	90 93 6c 04 	sts	0x046C, r25	; 0x80046c <irq_hdl_trx_awake+0x1>
    1d64:	80 93 6b 04 	sts	0x046B, r24	; 0x80046b <irq_hdl_trx_awake>
    1d68:	08 95       	ret

00001d6a <__vector_63>:
    1d6a:	1f 92       	push	r1
    1d6c:	0f 92       	push	r0
    1d6e:	0f b6       	in	r0, 0x3f	; 63
    1d70:	0f 92       	push	r0
    1d72:	11 24       	eor	r1, r1
    1d74:	0b b6       	in	r0, 0x3b	; 59
    1d76:	0f 92       	push	r0
    1d78:	2f 93       	push	r18
    1d7a:	3f 93       	push	r19
    1d7c:	4f 93       	push	r20
    1d7e:	5f 93       	push	r21
    1d80:	6f 93       	push	r22
    1d82:	7f 93       	push	r23
    1d84:	8f 93       	push	r24
    1d86:	9f 93       	push	r25
    1d88:	af 93       	push	r26
    1d8a:	bf 93       	push	r27
    1d8c:	ef 93       	push	r30
    1d8e:	ff 93       	push	r31
    1d90:	e0 91 71 04 	lds	r30, 0x0471	; 0x800471 <irq_hdl_trx_tx_end>
    1d94:	f0 91 72 04 	lds	r31, 0x0472	; 0x800472 <irq_hdl_trx_tx_end+0x1>
    1d98:	19 95       	eicall
    1d9a:	ff 91       	pop	r31
    1d9c:	ef 91       	pop	r30
    1d9e:	bf 91       	pop	r27
    1da0:	af 91       	pop	r26
    1da2:	9f 91       	pop	r25
    1da4:	8f 91       	pop	r24
    1da6:	7f 91       	pop	r23
    1da8:	6f 91       	pop	r22
    1daa:	5f 91       	pop	r21
    1dac:	4f 91       	pop	r20
    1dae:	3f 91       	pop	r19
    1db0:	2f 91       	pop	r18
    1db2:	0f 90       	pop	r0
    1db4:	0b be       	out	0x3b, r0	; 59
    1db6:	0f 90       	pop	r0
    1db8:	0f be       	out	0x3f, r0	; 63
    1dba:	0f 90       	pop	r0
    1dbc:	1f 90       	pop	r1
    1dbe:	18 95       	reti

00001dc0 <__vector_60>:
    1dc0:	1f 92       	push	r1
    1dc2:	0f 92       	push	r0
    1dc4:	0f b6       	in	r0, 0x3f	; 63
    1dc6:	0f 92       	push	r0
    1dc8:	11 24       	eor	r1, r1
    1dca:	0b b6       	in	r0, 0x3b	; 59
    1dcc:	0f 92       	push	r0
    1dce:	2f 93       	push	r18
    1dd0:	3f 93       	push	r19
    1dd2:	4f 93       	push	r20
    1dd4:	5f 93       	push	r21
    1dd6:	6f 93       	push	r22
    1dd8:	7f 93       	push	r23
    1dda:	8f 93       	push	r24
    1ddc:	9f 93       	push	r25
    1dde:	af 93       	push	r26
    1de0:	bf 93       	push	r27
    1de2:	ef 93       	push	r30
    1de4:	ff 93       	push	r31
    1de6:	e0 91 6f 04 	lds	r30, 0x046F	; 0x80046f <irq_hdl_trx_rx_end>
    1dea:	f0 91 70 04 	lds	r31, 0x0470	; 0x800470 <irq_hdl_trx_rx_end+0x1>
    1dee:	19 95       	eicall
    1df0:	ff 91       	pop	r31
    1df2:	ef 91       	pop	r30
    1df4:	bf 91       	pop	r27
    1df6:	af 91       	pop	r26
    1df8:	9f 91       	pop	r25
    1dfa:	8f 91       	pop	r24
    1dfc:	7f 91       	pop	r23
    1dfe:	6f 91       	pop	r22
    1e00:	5f 91       	pop	r21
    1e02:	4f 91       	pop	r20
    1e04:	3f 91       	pop	r19
    1e06:	2f 91       	pop	r18
    1e08:	0f 90       	pop	r0
    1e0a:	0b be       	out	0x3b, r0	; 59
    1e0c:	0f 90       	pop	r0
    1e0e:	0f be       	out	0x3f, r0	; 63
    1e10:	0f 90       	pop	r0
    1e12:	1f 90       	pop	r1
    1e14:	18 95       	reti

00001e16 <__vector_61>:
    1e16:	1f 92       	push	r1
    1e18:	0f 92       	push	r0
    1e1a:	0f b6       	in	r0, 0x3f	; 63
    1e1c:	0f 92       	push	r0
    1e1e:	11 24       	eor	r1, r1
    1e20:	0b b6       	in	r0, 0x3b	; 59
    1e22:	0f 92       	push	r0
    1e24:	2f 93       	push	r18
    1e26:	3f 93       	push	r19
    1e28:	4f 93       	push	r20
    1e2a:	5f 93       	push	r21
    1e2c:	6f 93       	push	r22
    1e2e:	7f 93       	push	r23
    1e30:	8f 93       	push	r24
    1e32:	9f 93       	push	r25
    1e34:	af 93       	push	r26
    1e36:	bf 93       	push	r27
    1e38:	ef 93       	push	r30
    1e3a:	ff 93       	push	r31
    1e3c:	e0 91 6d 04 	lds	r30, 0x046D	; 0x80046d <irq_hdl_trx_cca_ed>
    1e40:	f0 91 6e 04 	lds	r31, 0x046E	; 0x80046e <irq_hdl_trx_cca_ed+0x1>
    1e44:	19 95       	eicall
    1e46:	ff 91       	pop	r31
    1e48:	ef 91       	pop	r30
    1e4a:	bf 91       	pop	r27
    1e4c:	af 91       	pop	r26
    1e4e:	9f 91       	pop	r25
    1e50:	8f 91       	pop	r24
    1e52:	7f 91       	pop	r23
    1e54:	6f 91       	pop	r22
    1e56:	5f 91       	pop	r21
    1e58:	4f 91       	pop	r20
    1e5a:	3f 91       	pop	r19
    1e5c:	2f 91       	pop	r18
    1e5e:	0f 90       	pop	r0
    1e60:	0b be       	out	0x3b, r0	; 59
    1e62:	0f 90       	pop	r0
    1e64:	0f be       	out	0x3f, r0	; 63
    1e66:	0f 90       	pop	r0
    1e68:	1f 90       	pop	r1
    1e6a:	18 95       	reti

00001e6c <__vector_64>:
    1e6c:	1f 92       	push	r1
    1e6e:	0f 92       	push	r0
    1e70:	0f b6       	in	r0, 0x3f	; 63
    1e72:	0f 92       	push	r0
    1e74:	11 24       	eor	r1, r1
    1e76:	0b b6       	in	r0, 0x3b	; 59
    1e78:	0f 92       	push	r0
    1e7a:	2f 93       	push	r18
    1e7c:	3f 93       	push	r19
    1e7e:	4f 93       	push	r20
    1e80:	5f 93       	push	r21
    1e82:	6f 93       	push	r22
    1e84:	7f 93       	push	r23
    1e86:	8f 93       	push	r24
    1e88:	9f 93       	push	r25
    1e8a:	af 93       	push	r26
    1e8c:	bf 93       	push	r27
    1e8e:	ef 93       	push	r30
    1e90:	ff 93       	push	r31
    1e92:	e0 91 6b 04 	lds	r30, 0x046B	; 0x80046b <irq_hdl_trx_awake>
    1e96:	f0 91 6c 04 	lds	r31, 0x046C	; 0x80046c <irq_hdl_trx_awake+0x1>
    1e9a:	19 95       	eicall
    1e9c:	ff 91       	pop	r31
    1e9e:	ef 91       	pop	r30
    1ea0:	bf 91       	pop	r27
    1ea2:	af 91       	pop	r26
    1ea4:	9f 91       	pop	r25
    1ea6:	8f 91       	pop	r24
    1ea8:	7f 91       	pop	r23
    1eaa:	6f 91       	pop	r22
    1eac:	5f 91       	pop	r21
    1eae:	4f 91       	pop	r20
    1eb0:	3f 91       	pop	r19
    1eb2:	2f 91       	pop	r18
    1eb4:	0f 90       	pop	r0
    1eb6:	0b be       	out	0x3b, r0	; 59
    1eb8:	0f 90       	pop	r0
    1eba:	0f be       	out	0x3f, r0	; 63
    1ebc:	0f 90       	pop	r0
    1ebe:	1f 90       	pop	r1
    1ec0:	18 95       	reti

00001ec2 <__vector_59>:
    1ec2:	1f 92       	push	r1
    1ec4:	0f 92       	push	r0
    1ec6:	0f b6       	in	r0, 0x3f	; 63
    1ec8:	0f 92       	push	r0
    1eca:	11 24       	eor	r1, r1
    1ecc:	0f 90       	pop	r0
    1ece:	0f be       	out	0x3f, r0	; 63
    1ed0:	0f 90       	pop	r0
    1ed2:	1f 90       	pop	r1
    1ed4:	18 95       	reti

00001ed6 <__vector_57>:
    1ed6:	1f 92       	push	r1
    1ed8:	0f 92       	push	r0
    1eda:	0f b6       	in	r0, 0x3f	; 63
    1edc:	0f 92       	push	r0
    1ede:	11 24       	eor	r1, r1
    1ee0:	0f 90       	pop	r0
    1ee2:	0f be       	out	0x3f, r0	; 63
    1ee4:	0f 90       	pop	r0
    1ee6:	1f 90       	pop	r1
    1ee8:	18 95       	reti

00001eea <__vector_58>:
    1eea:	1f 92       	push	r1
    1eec:	0f 92       	push	r0
    1eee:	0f b6       	in	r0, 0x3f	; 63
    1ef0:	0f 92       	push	r0
    1ef2:	11 24       	eor	r1, r1
    1ef4:	0f 90       	pop	r0
    1ef6:	0f be       	out	0x3f, r0	; 63
    1ef8:	0f 90       	pop	r0
    1efa:	1f 90       	pop	r1
    1efc:	18 95       	reti

00001efe <__vector_62>:
    1efe:	1f 92       	push	r1
    1f00:	0f 92       	push	r0
    1f02:	0f b6       	in	r0, 0x3f	; 63
    1f04:	0f 92       	push	r0
    1f06:	11 24       	eor	r1, r1
    1f08:	0f 90       	pop	r0
    1f0a:	0f be       	out	0x3f, r0	; 63
    1f0c:	0f 90       	pop	r0
    1f0e:	1f 90       	pop	r1
    1f10:	18 95       	reti

00001f12 <__vector_71>:
    1f12:	1f 92       	push	r1
    1f14:	0f 92       	push	r0
    1f16:	0f b6       	in	r0, 0x3f	; 63
    1f18:	0f 92       	push	r0
    1f1a:	11 24       	eor	r1, r1
    1f1c:	0f 90       	pop	r0
    1f1e:	0f be       	out	0x3f, r0	; 63
    1f20:	0f 90       	pop	r0
    1f22:	1f 90       	pop	r1
    1f24:	18 95       	reti

00001f26 <__vector_70>:
    1f26:	1f 92       	push	r1
    1f28:	0f 92       	push	r0
    1f2a:	0f b6       	in	r0, 0x3f	; 63
    1f2c:	0f 92       	push	r0
    1f2e:	11 24       	eor	r1, r1
    1f30:	0f 90       	pop	r0
    1f32:	0f be       	out	0x3f, r0	; 63
    1f34:	0f 90       	pop	r0
    1f36:	1f 90       	pop	r1
    1f38:	18 95       	reti

00001f3a <__vector_72>:
    1f3a:	1f 92       	push	r1
    1f3c:	0f 92       	push	r0
    1f3e:	0f b6       	in	r0, 0x3f	; 63
    1f40:	0f 92       	push	r0
    1f42:	11 24       	eor	r1, r1
    1f44:	0f 90       	pop	r0
    1f46:	0f be       	out	0x3f, r0	; 63
    1f48:	0f 90       	pop	r0
    1f4a:	1f 90       	pop	r1
    1f4c:	18 95       	reti

00001f4e <__vector_73>:
    1f4e:	1f 92       	push	r1
    1f50:	0f 92       	push	r0
    1f52:	0f b6       	in	r0, 0x3f	; 63
    1f54:	0f 92       	push	r0
    1f56:	11 24       	eor	r1, r1
    1f58:	0f 90       	pop	r0
    1f5a:	0f be       	out	0x3f, r0	; 63
    1f5c:	0f 90       	pop	r0
    1f5e:	1f 90       	pop	r1
    1f60:	18 95       	reti

00001f62 <__vector_74>:
    1f62:	1f 92       	push	r1
    1f64:	0f 92       	push	r0
    1f66:	0f b6       	in	r0, 0x3f	; 63
    1f68:	0f 92       	push	r0
    1f6a:	11 24       	eor	r1, r1
    1f6c:	0f 90       	pop	r0
    1f6e:	0f be       	out	0x3f, r0	; 63
    1f70:	0f 90       	pop	r0
    1f72:	1f 90       	pop	r1
    1f74:	18 95       	reti

00001f76 <__vector_75>:
    1f76:	1f 92       	push	r1
    1f78:	0f 92       	push	r0
    1f7a:	0f b6       	in	r0, 0x3f	; 63
    1f7c:	0f 92       	push	r0
    1f7e:	11 24       	eor	r1, r1
    1f80:	0f 90       	pop	r0
    1f82:	0f be       	out	0x3f, r0	; 63
    1f84:	0f 90       	pop	r0
    1f86:	1f 90       	pop	r1
    1f88:	18 95       	reti

00001f8a <__vector_76>:
    1f8a:	1f 92       	push	r1
    1f8c:	0f 92       	push	r0
    1f8e:	0f b6       	in	r0, 0x3f	; 63
    1f90:	0f 92       	push	r0
    1f92:	11 24       	eor	r1, r1
    1f94:	0f 90       	pop	r0
    1f96:	0f be       	out	0x3f, r0	; 63
    1f98:	0f 90       	pop	r0
    1f9a:	1f 90       	pop	r1
    1f9c:	18 95       	reti

00001f9e <trx_rx_end_handler_cb>:
    1f9e:	1f 93       	push	r17
    1fa0:	cf 93       	push	r28
    1fa2:	df 93       	push	r29
    1fa4:	1f 92       	push	r1
    1fa6:	cd b7       	in	r28, 0x3d	; 61
    1fa8:	de b7       	in	r29, 0x3e	; 62
    1faa:	8f b7       	in	r24, 0x3f	; 63
    1fac:	89 83       	std	Y+1, r24	; 0x01
    1fae:	f8 94       	cli
    1fb0:	19 81       	ldd	r17, Y+1	; 0x01
    1fb2:	19 d2       	rcall	.+1074   	; 0x23e6 <handle_received_frame_irq>
    1fb4:	1f bf       	out	0x3f, r17	; 63
    1fb6:	0f 90       	pop	r0
    1fb8:	df 91       	pop	r29
    1fba:	cf 91       	pop	r28
    1fbc:	1f 91       	pop	r17
    1fbe:	08 95       	ret

00001fc0 <trx_tx_end_handler_cb>:
    1fc0:	1f 93       	push	r17
    1fc2:	cf 93       	push	r28
    1fc4:	df 93       	push	r29
    1fc6:	1f 92       	push	r1
    1fc8:	cd b7       	in	r28, 0x3d	; 61
    1fca:	de b7       	in	r29, 0x3e	; 62
    1fcc:	8f b7       	in	r24, 0x3f	; 63
    1fce:	89 83       	std	Y+1, r24	; 0x01
    1fd0:	f8 94       	cli
    1fd2:	19 81       	ldd	r17, Y+1	; 0x01
    1fd4:	a9 d3       	rcall	.+1874   	; 0x2728 <handle_tx_end_irq>
    1fd6:	1f bf       	out	0x3f, r17	; 63
    1fd8:	0f 90       	pop	r0
    1fda:	df 91       	pop	r29
    1fdc:	cf 91       	pop	r28
    1fde:	1f 91       	pop	r17
    1fe0:	08 95       	ret

00001fe2 <trx_awake_handler_cb>:
    1fe2:	81 e0       	ldi	r24, 0x01	; 1
    1fe4:	80 93 a4 05 	sts	0x05A4, r24	; 0x8005a4 <tal_awake_end_flag>
    1fe8:	08 95       	ret

00001fea <limit_tx_pwr>:
    1fea:	85 fd       	sbrc	r24, 5
    1fec:	03 c0       	rjmp	.+6      	; 0x1ff4 <limit_tx_pwr+0xa>
    1fee:	98 2f       	mov	r25, r24
    1ff0:	9f 73       	andi	r25, 0x3F	; 63
    1ff2:	04 c0       	rjmp	.+8      	; 0x1ffc <limit_tx_pwr+0x12>
    1ff4:	98 2f       	mov	r25, r24
    1ff6:	91 95       	neg	r25
    1ff8:	9f 71       	andi	r25, 0x1F	; 31
    1ffa:	91 95       	neg	r25
    1ffc:	e4 ee       	ldi	r30, 0xE4	; 228
    1ffe:	f1 e0       	ldi	r31, 0x01	; 1
    2000:	24 91       	lpm	r18, Z
    2002:	29 17       	cp	r18, r25
    2004:	54 f4       	brge	.+20     	; 0x201a <__EEPROM_REGION_LENGTH__+0x1a>
    2006:	84 91       	lpm	r24, Z
    2008:	80 3e       	cpi	r24, 0xE0	; 224
    200a:	b4 f0       	brlt	.+44     	; 0x2038 <__EEPROM_REGION_LENGTH__+0x38>
    200c:	80 32       	cpi	r24, 0x20	; 32
    200e:	b4 f4       	brge	.+44     	; 0x203c <__EEPROM_REGION_LENGTH__+0x3c>
    2010:	88 23       	and	r24, r24
    2012:	cc f4       	brge	.+50     	; 0x2046 <__EEPROM_REGION_LENGTH__+0x46>
    2014:	8f 71       	andi	r24, 0x1F	; 31
    2016:	80 62       	ori	r24, 0x20	; 32
    2018:	16 c0       	rjmp	.+44     	; 0x2046 <__EEPROM_REGION_LENGTH__+0x46>
    201a:	e3 ef       	ldi	r30, 0xF3	; 243
    201c:	f1 e0       	ldi	r31, 0x01	; 1
    201e:	24 91       	lpm	r18, Z
    2020:	92 17       	cp	r25, r18
    2022:	8c f4       	brge	.+34     	; 0x2046 <__EEPROM_REGION_LENGTH__+0x46>
    2024:	84 91       	lpm	r24, Z
    2026:	80 3e       	cpi	r24, 0xE0	; 224
    2028:	5c f0       	brlt	.+22     	; 0x2040 <__EEPROM_REGION_LENGTH__+0x40>
    202a:	80 32       	cpi	r24, 0x20	; 32
    202c:	5c f4       	brge	.+22     	; 0x2044 <__EEPROM_REGION_LENGTH__+0x44>
    202e:	88 23       	and	r24, r24
    2030:	54 f4       	brge	.+20     	; 0x2046 <__EEPROM_REGION_LENGTH__+0x46>
    2032:	8f 71       	andi	r24, 0x1F	; 31
    2034:	80 62       	ori	r24, 0x20	; 32
    2036:	07 c0       	rjmp	.+14     	; 0x2046 <__EEPROM_REGION_LENGTH__+0x46>
    2038:	80 e2       	ldi	r24, 0x20	; 32
    203a:	05 c0       	rjmp	.+10     	; 0x2046 <__EEPROM_REGION_LENGTH__+0x46>
    203c:	8f e1       	ldi	r24, 0x1F	; 31
    203e:	03 c0       	rjmp	.+6      	; 0x2046 <__EEPROM_REGION_LENGTH__+0x46>
    2040:	80 e2       	ldi	r24, 0x20	; 32
    2042:	01 c0       	rjmp	.+2      	; 0x2046 <__EEPROM_REGION_LENGTH__+0x46>
    2044:	8f e1       	ldi	r24, 0x1F	; 31
    2046:	80 68       	ori	r24, 0x80	; 128
    2048:	08 95       	ret

0000204a <init_tal_pib>:
    204a:	cf 93       	push	r28
    204c:	df 93       	push	r29
    204e:	c1 e8       	ldi	r28, 0x81	; 129
    2050:	d5 e0       	ldi	r29, 0x05	; 5
    2052:	84 e0       	ldi	r24, 0x04	; 4
    2054:	8c 8b       	std	Y+20, r24	; 0x14
    2056:	83 e0       	ldi	r24, 0x03	; 3
    2058:	8d 8b       	std	Y+21, r24	; 0x15
    205a:	2f ef       	ldi	r18, 0xFF	; 255
    205c:	3f ef       	ldi	r19, 0xFF	; 255
    205e:	3f 87       	std	Y+15, r19	; 0x0f
    2060:	2e 87       	std	Y+14, r18	; 0x0e
    2062:	3d 87       	std	Y+13, r19	; 0x0d
    2064:	2c 87       	std	Y+12, r18	; 0x0c
    2066:	9b e0       	ldi	r25, 0x0B	; 11
    2068:	9b 8b       	std	Y+19, r25	; 0x13
    206a:	18 8e       	std	Y+24, r1	; 0x18
    206c:	40 e0       	ldi	r20, 0x00	; 0
    206e:	58 ef       	ldi	r21, 0xF8	; 248
    2070:	6f ef       	ldi	r22, 0xFF	; 255
    2072:	77 e0       	ldi	r23, 0x07	; 7
    2074:	48 87       	std	Y+8, r20	; 0x08
    2076:	59 87       	std	Y+9, r21	; 0x09
    2078:	6a 87       	std	Y+10, r22	; 0x0a
    207a:	7b 87       	std	Y+11, r23	; 0x0b
    207c:	2a e0       	ldi	r18, 0x0A	; 10
    207e:	31 e0       	ldi	r19, 0x01	; 1
    2080:	39 8b       	std	Y+17, r19	; 0x11
    2082:	28 8b       	std	Y+16, r18	; 0x10
    2084:	9a e0       	ldi	r25, 0x0A	; 10
    2086:	99 8f       	std	Y+25, r25	; 0x19
    2088:	92 e0       	ldi	r25, 0x02	; 2
    208a:	9a 8f       	std	Y+26, r25	; 0x1a
    208c:	95 e0       	ldi	r25, 0x05	; 5
    208e:	9b 8f       	std	Y+27, r25	; 0x1b
    2090:	8c 8f       	std	Y+28, r24	; 0x1c
    2092:	84 e8       	ldi	r24, 0x84	; 132
    2094:	aa df       	rcall	.-172    	; 0x1fea <limit_tx_pwr>
    2096:	8f 8b       	std	Y+23, r24	; 0x17
    2098:	81 e0       	ldi	r24, 0x01	; 1
    209a:	8a 8b       	std	Y+18, r24	; 0x12
    209c:	1e 8a       	std	Y+22, r1	; 0x16
    209e:	df 91       	pop	r29
    20a0:	cf 91       	pop	r28
    20a2:	08 95       	ret

000020a4 <convert_phyTransmitPower_to_reg_value>:
    20a4:	85 fd       	sbrc	r24, 5
    20a6:	02 c0       	rjmp	.+4      	; 0x20ac <convert_phyTransmitPower_to_reg_value+0x8>
    20a8:	8f 73       	andi	r24, 0x3F	; 63
    20aa:	03 c0       	rjmp	.+6      	; 0x20b2 <convert_phyTransmitPower_to_reg_value+0xe>
    20ac:	81 95       	neg	r24
    20ae:	8f 71       	andi	r24, 0x1F	; 31
    20b0:	81 95       	neg	r24
    20b2:	e4 ee       	ldi	r30, 0xE4	; 228
    20b4:	f1 e0       	ldi	r31, 0x01	; 1
    20b6:	94 91       	lpm	r25, Z
    20b8:	89 17       	cp	r24, r25
    20ba:	3c f4       	brge	.+14     	; 0x20ca <convert_phyTransmitPower_to_reg_value+0x26>
    20bc:	e5 ee       	ldi	r30, 0xE5	; 229
    20be:	f1 e0       	ldi	r31, 0x01	; 1
    20c0:	21 e0       	ldi	r18, 0x01	; 1
    20c2:	94 91       	lpm	r25, Z
    20c4:	89 17       	cp	r24, r25
    20c6:	3c f0       	brlt	.+14     	; 0x20d6 <convert_phyTransmitPower_to_reg_value+0x32>
    20c8:	01 c0       	rjmp	.+2      	; 0x20cc <convert_phyTransmitPower_to_reg_value+0x28>
    20ca:	20 e0       	ldi	r18, 0x00	; 0
    20cc:	98 17       	cp	r25, r24
    20ce:	4c f4       	brge	.+18     	; 0x20e2 <convert_phyTransmitPower_to_reg_value+0x3e>
    20d0:	8f ef       	ldi	r24, 0xFF	; 255
    20d2:	82 0f       	add	r24, r18
    20d4:	08 95       	ret
    20d6:	2f 5f       	subi	r18, 0xFF	; 255
    20d8:	31 96       	adiw	r30, 0x01	; 1
    20da:	20 31       	cpi	r18, 0x10	; 16
    20dc:	91 f7       	brne	.-28     	; 0x20c2 <convert_phyTransmitPower_to_reg_value+0x1e>
    20de:	80 e0       	ldi	r24, 0x00	; 0
    20e0:	08 95       	ret
    20e2:	82 2f       	mov	r24, r18
    20e4:	08 95       	ret

000020e6 <write_all_tal_pib_to_trx>:
    20e6:	cf 93       	push	r28
    20e8:	df 93       	push	r29
    20ea:	e1 e8       	ldi	r30, 0x81	; 129
    20ec:	f5 e0       	ldi	r31, 0x05	; 5
    20ee:	86 85       	ldd	r24, Z+14	; 0x0e
    20f0:	80 93 62 01 	sts	0x0162, r24	; 0x800162 <__TEXT_REGION_LENGTH__+0x7c0162>
    20f4:	87 85       	ldd	r24, Z+15	; 0x0f
    20f6:	80 93 63 01 	sts	0x0163, r24	; 0x800163 <__TEXT_REGION_LENGTH__+0x7c0163>
    20fa:	e4 e6       	ldi	r30, 0x64	; 100
    20fc:	f1 e0       	ldi	r31, 0x01	; 1
    20fe:	a1 e8       	ldi	r26, 0x81	; 129
    2100:	b5 e0       	ldi	r27, 0x05	; 5
    2102:	8d 91       	ld	r24, X+
    2104:	81 93       	st	Z+, r24
    2106:	ec 36       	cpi	r30, 0x6C	; 108
    2108:	31 e0       	ldi	r19, 0x01	; 1
    210a:	f3 07       	cpc	r31, r19
    210c:	d1 f7       	brne	.-12     	; 0x2102 <write_all_tal_pib_to_trx+0x1c>
    210e:	e1 e8       	ldi	r30, 0x81	; 129
    2110:	f5 e0       	ldi	r31, 0x05	; 5
    2112:	84 85       	ldd	r24, Z+12	; 0x0c
    2114:	80 93 60 01 	sts	0x0160, r24	; 0x800160 <__TEXT_REGION_LENGTH__+0x7c0160>
    2118:	85 85       	ldd	r24, Z+13	; 0x0d
    211a:	80 93 61 01 	sts	0x0161, r24	; 0x800161 <__TEXT_REGION_LENGTH__+0x7c0161>
    211e:	48 e4       	ldi	r20, 0x48	; 72
    2120:	51 e0       	ldi	r21, 0x01	; 1
    2122:	da 01       	movw	r26, r20
    2124:	8c 91       	ld	r24, X
    2126:	22 89       	ldd	r18, Z+18	; 0x12
    2128:	b0 e2       	ldi	r27, 0x20	; 32
    212a:	2b 9f       	mul	r18, r27
    212c:	90 01       	movw	r18, r0
    212e:	11 24       	eor	r1, r1
    2130:	20 76       	andi	r18, 0x60	; 96
    2132:	8f 79       	andi	r24, 0x9F	; 159
    2134:	82 2b       	or	r24, r18
    2136:	da 01       	movw	r26, r20
    2138:	8c 93       	st	X, r24
    213a:	cf e6       	ldi	r28, 0x6F	; 111
    213c:	d1 e0       	ldi	r29, 0x01	; 1
    213e:	88 81       	ld	r24, Y
    2140:	95 89       	ldd	r25, Z+21	; 0x15
    2142:	9f 70       	andi	r25, 0x0F	; 15
    2144:	80 7f       	andi	r24, 0xF0	; 240
    2146:	89 2b       	or	r24, r25
    2148:	88 83       	st	Y, r24
    214a:	2e e6       	ldi	r18, 0x6E	; 110
    214c:	31 e0       	ldi	r19, 0x01	; 1
    214e:	d9 01       	movw	r26, r18
    2150:	8c 91       	ld	r24, X
    2152:	96 89       	ldd	r25, Z+22	; 0x16
    2154:	99 0f       	add	r25, r25
    2156:	99 0f       	add	r25, r25
    2158:	99 0f       	add	r25, r25
    215a:	98 70       	andi	r25, 0x08	; 8
    215c:	87 7f       	andi	r24, 0xF7	; 247
    215e:	89 2b       	or	r24, r25
    2160:	8c 93       	st	X, r24
    2162:	28 81       	ld	r18, Y
    2164:	93 8d       	ldd	r25, Z+27	; 0x1b
    2166:	b0 e1       	ldi	r27, 0x10	; 16
    2168:	9b 9f       	mul	r25, r27
    216a:	c0 01       	movw	r24, r0
    216c:	11 24       	eor	r1, r1
    216e:	92 2f       	mov	r25, r18
    2170:	9f 70       	andi	r25, 0x0F	; 15
    2172:	89 2b       	or	r24, r25
    2174:	88 83       	st	Y, r24
    2176:	da 01       	movw	r26, r20
    2178:	8c 91       	ld	r24, X
    217a:	93 89       	ldd	r25, Z+19	; 0x13
    217c:	9f 71       	andi	r25, 0x1F	; 31
    217e:	80 7e       	andi	r24, 0xE0	; 224
    2180:	89 2b       	or	r24, r25
    2182:	8c 93       	st	X, r24
    2184:	87 89       	ldd	r24, Z+23	; 0x17
    2186:	8e df       	rcall	.-228    	; 0x20a4 <convert_phyTransmitPower_to_reg_value>
    2188:	e5 e4       	ldi	r30, 0x45	; 69
    218a:	f1 e0       	ldi	r31, 0x01	; 1
    218c:	90 81       	ld	r25, Z
    218e:	90 7f       	andi	r25, 0xF0	; 240
    2190:	8f 70       	andi	r24, 0x0F	; 15
    2192:	89 2b       	or	r24, r25
    2194:	80 83       	st	Z, r24
    2196:	df 91       	pop	r29
    2198:	cf 91       	pop	r28
    219a:	08 95       	ret

0000219c <tal_pib_set>:
    219c:	cf 93       	push	r28
    219e:	df 93       	push	r29
    21a0:	8e 34       	cpi	r24, 0x4E	; 78
    21a2:	41 f0       	breq	.+16     	; 0x21b4 <tal_pib_set+0x18>
    21a4:	89 35       	cpi	r24, 0x59	; 89
    21a6:	61 f4       	brne	.+24     	; 0x21c0 <tal_pib_set+0x24>
    21a8:	fb 01       	movw	r30, r22
    21aa:	80 81       	ld	r24, Z
    21ac:	80 93 9d 05 	sts	0x059D, r24	; 0x80059d <tal_pib+0x1c>
    21b0:	80 e0       	ldi	r24, 0x00	; 0
    21b2:	0b c1       	rjmp	.+534    	; 0x23ca <tal_pib_set+0x22e>
    21b4:	fb 01       	movw	r30, r22
    21b6:	80 81       	ld	r24, Z
    21b8:	80 93 95 05 	sts	0x0595, r24	; 0x800595 <tal_pib+0x14>
    21bc:	80 e0       	ldi	r24, 0x00	; 0
    21be:	05 c1       	rjmp	.+522    	; 0x23ca <tal_pib_set+0x22e>
    21c0:	90 91 a0 05 	lds	r25, 0x05A0	; 0x8005a0 <tal_trx_status>
    21c4:	9f 30       	cpi	r25, 0x0F	; 15
    21c6:	09 f4       	brne	.+2      	; 0x21ca <tal_pib_set+0x2e>
    21c8:	dc c0       	rjmp	.+440    	; 0x2382 <tal_pib_set+0x1e6>
    21ca:	8b 30       	cpi	r24, 0x0B	; 11
    21cc:	09 f4       	brne	.+2      	; 0x21d0 <tal_pib_set+0x34>
    21ce:	c9 c0       	rjmp	.+402    	; 0x2362 <tal_pib_set+0x1c6>
    21d0:	80 f4       	brcc	.+32     	; 0x21f2 <tal_pib_set+0x56>
    21d2:	eb 01       	movw	r28, r22
    21d4:	82 30       	cpi	r24, 0x02	; 2
    21d6:	09 f4       	brne	.+2      	; 0x21da <tal_pib_set+0x3e>
    21d8:	84 c0       	rjmp	.+264    	; 0x22e2 <tal_pib_set+0x146>
    21da:	20 f4       	brcc	.+8      	; 0x21e4 <tal_pib_set+0x48>
    21dc:	88 23       	and	r24, r24
    21de:	09 f4       	brne	.+2      	; 0x21e2 <tal_pib_set+0x46>
    21e0:	46 c0       	rjmp	.+140    	; 0x226e <tal_pib_set+0xd2>
    21e2:	d1 c0       	rjmp	.+418    	; 0x2386 <tal_pib_set+0x1ea>
    21e4:	83 30       	cpi	r24, 0x03	; 3
    21e6:	09 f4       	brne	.+2      	; 0x21ea <tal_pib_set+0x4e>
    21e8:	8c c0       	rjmp	.+280    	; 0x2302 <tal_pib_set+0x166>
    21ea:	84 30       	cpi	r24, 0x04	; 4
    21ec:	09 f4       	brne	.+2      	; 0x21f0 <tal_pib_set+0x54>
    21ee:	5a c0       	rjmp	.+180    	; 0x22a4 <tal_pib_set+0x108>
    21f0:	ca c0       	rjmp	.+404    	; 0x2386 <tal_pib_set+0x1ea>
    21f2:	83 35       	cpi	r24, 0x53	; 83
    21f4:	79 f1       	breq	.+94     	; 0x2254 <tal_pib_set+0xb8>
    21f6:	28 f4       	brcc	.+10     	; 0x2202 <tal_pib_set+0x66>
    21f8:	8f 34       	cpi	r24, 0x4F	; 79
    21fa:	51 f0       	breq	.+20     	; 0x2210 <tal_pib_set+0x74>
    21fc:	80 35       	cpi	r24, 0x50	; 80
    21fe:	e9 f0       	breq	.+58     	; 0x223a <tal_pib_set+0x9e>
    2200:	c2 c0       	rjmp	.+388    	; 0x2386 <tal_pib_set+0x1ea>
    2202:	87 35       	cpi	r24, 0x57	; 87
    2204:	09 f4       	brne	.+2      	; 0x2208 <tal_pib_set+0x6c>
    2206:	56 c0       	rjmp	.+172    	; 0x22b4 <tal_pib_set+0x118>
    2208:	80 3f       	cpi	r24, 0xF0	; 240
    220a:	09 f4       	brne	.+2      	; 0x220e <tal_pib_set+0x72>
    220c:	8b c0       	rjmp	.+278    	; 0x2324 <tal_pib_set+0x188>
    220e:	bb c0       	rjmp	.+374    	; 0x2386 <tal_pib_set+0x1ea>
    2210:	fb 01       	movw	r30, r22
    2212:	80 81       	ld	r24, Z
    2214:	e1 e8       	ldi	r30, 0x81	; 129
    2216:	f5 e0       	ldi	r31, 0x05	; 5
    2218:	85 8b       	std	Z+21, r24	; 0x15
    221a:	93 8d       	ldd	r25, Z+27	; 0x1b
    221c:	98 17       	cp	r25, r24
    221e:	10 f4       	brcc	.+4      	; 0x2224 <tal_pib_set+0x88>
    2220:	90 93 96 05 	sts	0x0596, r25	; 0x800596 <tal_pib+0x15>
    2224:	ef e6       	ldi	r30, 0x6F	; 111
    2226:	f1 e0       	ldi	r31, 0x01	; 1
    2228:	80 81       	ld	r24, Z
    222a:	90 91 96 05 	lds	r25, 0x0596	; 0x800596 <tal_pib+0x15>
    222e:	9f 70       	andi	r25, 0x0F	; 15
    2230:	80 7f       	andi	r24, 0xF0	; 240
    2232:	89 2b       	or	r24, r25
    2234:	80 83       	st	Z, r24
    2236:	80 e0       	ldi	r24, 0x00	; 0
    2238:	c8 c0       	rjmp	.+400    	; 0x23ca <tal_pib_set+0x22e>
    223a:	fb 01       	movw	r30, r22
    223c:	90 81       	ld	r25, Z
    223e:	81 81       	ldd	r24, Z+1	; 0x01
    2240:	e1 e8       	ldi	r30, 0x81	; 129
    2242:	f5 e0       	ldi	r31, 0x05	; 5
    2244:	96 87       	std	Z+14, r25	; 0x0e
    2246:	87 87       	std	Z+15, r24	; 0x0f
    2248:	90 93 62 01 	sts	0x0162, r25	; 0x800162 <__TEXT_REGION_LENGTH__+0x7c0162>
    224c:	80 93 63 01 	sts	0x0163, r24	; 0x800163 <__TEXT_REGION_LENGTH__+0x7c0163>
    2250:	80 e0       	ldi	r24, 0x00	; 0
    2252:	bb c0       	rjmp	.+374    	; 0x23ca <tal_pib_set+0x22e>
    2254:	fb 01       	movw	r30, r22
    2256:	90 81       	ld	r25, Z
    2258:	81 81       	ldd	r24, Z+1	; 0x01
    225a:	e1 e8       	ldi	r30, 0x81	; 129
    225c:	f5 e0       	ldi	r31, 0x05	; 5
    225e:	94 87       	std	Z+12, r25	; 0x0c
    2260:	85 87       	std	Z+13, r24	; 0x0d
    2262:	90 93 60 01 	sts	0x0160, r25	; 0x800160 <__TEXT_REGION_LENGTH__+0x7c0160>
    2266:	80 93 61 01 	sts	0x0161, r24	; 0x800161 <__TEXT_REGION_LENGTH__+0x7c0161>
    226a:	80 e0       	ldi	r24, 0x00	; 0
    226c:	ae c0       	rjmp	.+348    	; 0x23ca <tal_pib_set+0x22e>
    226e:	80 91 a5 05 	lds	r24, 0x05A5	; 0x8005a5 <tal_state>
    2272:	81 11       	cpse	r24, r1
    2274:	8a c0       	rjmp	.+276    	; 0x238a <tal_pib_set+0x1ee>
    2276:	88 81       	ld	r24, Y
    2278:	40 e0       	ldi	r20, 0x00	; 0
    227a:	58 ef       	ldi	r21, 0xF8	; 248
    227c:	6f ef       	ldi	r22, 0xFF	; 255
    227e:	77 e0       	ldi	r23, 0x07	; 7
    2280:	08 2e       	mov	r0, r24
    2282:	04 c0       	rjmp	.+8      	; 0x228c <tal_pib_set+0xf0>
    2284:	76 95       	lsr	r23
    2286:	67 95       	ror	r22
    2288:	57 95       	ror	r21
    228a:	47 95       	ror	r20
    228c:	0a 94       	dec	r0
    228e:	d2 f7       	brpl	.-12     	; 0x2284 <tal_pib_set+0xe8>
    2290:	40 ff       	sbrs	r20, 0
    2292:	7d c0       	rjmp	.+250    	; 0x238e <tal_pib_set+0x1f2>
    2294:	98 30       	cpi	r25, 0x08	; 8
    2296:	09 f4       	brne	.+2      	; 0x229a <tal_pib_set+0xfe>
    2298:	80 c0       	rjmp	.+256    	; 0x239a <tal_pib_set+0x1fe>
    229a:	88 e0       	ldi	r24, 0x08	; 8
    229c:	6d da       	rcall	.-2854   	; 0x1778 <set_trx_state>
    229e:	88 30       	cpi	r24, 0x08	; 8
    22a0:	e1 f7       	brne	.-8      	; 0x229a <tal_pib_set+0xfe>
    22a2:	86 c0       	rjmp	.+268    	; 0x23b0 <tal_pib_set+0x214>
    22a4:	80 91 a5 05 	lds	r24, 0x05A5	; 0x8005a5 <tal_state>
    22a8:	81 11       	cpse	r24, r1
    22aa:	73 c0       	rjmp	.+230    	; 0x2392 <tal_pib_set+0x1f6>
    22ac:	88 81       	ld	r24, Y
    22ae:	81 11       	cpse	r24, r1
    22b0:	72 c0       	rjmp	.+228    	; 0x2396 <tal_pib_set+0x1fa>
    22b2:	8b c0       	rjmp	.+278    	; 0x23ca <tal_pib_set+0x22e>
    22b4:	fb 01       	movw	r30, r22
    22b6:	90 81       	ld	r25, Z
    22b8:	e1 e8       	ldi	r30, 0x81	; 129
    22ba:	f5 e0       	ldi	r31, 0x05	; 5
    22bc:	93 8f       	std	Z+27, r25	; 0x1b
    22be:	85 89       	ldd	r24, Z+21	; 0x15
    22c0:	98 17       	cp	r25, r24
    22c2:	10 f4       	brcc	.+4      	; 0x22c8 <tal_pib_set+0x12c>
    22c4:	90 93 96 05 	sts	0x0596, r25	; 0x800596 <tal_pib+0x15>
    22c8:	ef e6       	ldi	r30, 0x6F	; 111
    22ca:	f1 e0       	ldi	r31, 0x01	; 1
    22cc:	80 81       	ld	r24, Z
    22ce:	28 2f       	mov	r18, r24
    22d0:	2f 70       	andi	r18, 0x0F	; 15
    22d2:	30 e1       	ldi	r19, 0x10	; 16
    22d4:	93 9f       	mul	r25, r19
    22d6:	c0 01       	movw	r24, r0
    22d8:	11 24       	eor	r1, r1
    22da:	82 2b       	or	r24, r18
    22dc:	80 83       	st	Z, r24
    22de:	80 e0       	ldi	r24, 0x00	; 0
    22e0:	74 c0       	rjmp	.+232    	; 0x23ca <tal_pib_set+0x22e>
    22e2:	88 81       	ld	r24, Y
    22e4:	c1 e8       	ldi	r28, 0x81	; 129
    22e6:	d5 e0       	ldi	r29, 0x05	; 5
    22e8:	8f 8b       	std	Y+23, r24	; 0x17
    22ea:	7f de       	rcall	.-770    	; 0x1fea <limit_tx_pwr>
    22ec:	8f 8b       	std	Y+23, r24	; 0x17
    22ee:	da de       	rcall	.-588    	; 0x20a4 <convert_phyTransmitPower_to_reg_value>
    22f0:	e5 e4       	ldi	r30, 0x45	; 69
    22f2:	f1 e0       	ldi	r31, 0x01	; 1
    22f4:	90 81       	ld	r25, Z
    22f6:	90 7f       	andi	r25, 0xF0	; 240
    22f8:	8f 70       	andi	r24, 0x0F	; 15
    22fa:	89 2b       	or	r24, r25
    22fc:	80 83       	st	Z, r24
    22fe:	80 e0       	ldi	r24, 0x00	; 0
    2300:	64 c0       	rjmp	.+200    	; 0x23ca <tal_pib_set+0x22e>
    2302:	88 81       	ld	r24, Y
    2304:	80 93 93 05 	sts	0x0593, r24	; 0x800593 <tal_pib+0x12>
    2308:	e8 e4       	ldi	r30, 0x48	; 72
    230a:	f1 e0       	ldi	r31, 0x01	; 1
    230c:	20 81       	ld	r18, Z
    230e:	30 e2       	ldi	r19, 0x20	; 32
    2310:	83 9f       	mul	r24, r19
    2312:	c0 01       	movw	r24, r0
    2314:	11 24       	eor	r1, r1
    2316:	80 76       	andi	r24, 0x60	; 96
    2318:	92 2f       	mov	r25, r18
    231a:	9f 79       	andi	r25, 0x9F	; 159
    231c:	89 2b       	or	r24, r25
    231e:	80 83       	st	Z, r24
    2320:	80 e0       	ldi	r24, 0x00	; 0
    2322:	53 c0       	rjmp	.+166    	; 0x23ca <tal_pib_set+0x22e>
    2324:	fb 01       	movw	r30, r22
    2326:	b0 81       	ld	r27, Z
    2328:	a1 81       	ldd	r26, Z+1	; 0x01
    232a:	52 81       	ldd	r21, Z+2	; 0x02
    232c:	43 81       	ldd	r20, Z+3	; 0x03
    232e:	34 81       	ldd	r19, Z+4	; 0x04
    2330:	25 81       	ldd	r18, Z+5	; 0x05
    2332:	96 81       	ldd	r25, Z+6	; 0x06
    2334:	87 81       	ldd	r24, Z+7	; 0x07
    2336:	e1 e8       	ldi	r30, 0x81	; 129
    2338:	f5 e0       	ldi	r31, 0x05	; 5
    233a:	b0 83       	st	Z, r27
    233c:	a1 83       	std	Z+1, r26	; 0x01
    233e:	52 83       	std	Z+2, r21	; 0x02
    2340:	43 83       	std	Z+3, r20	; 0x03
    2342:	34 83       	std	Z+4, r19	; 0x04
    2344:	25 83       	std	Z+5, r18	; 0x05
    2346:	96 83       	std	Z+6, r25	; 0x06
    2348:	87 83       	std	Z+7, r24	; 0x07
    234a:	e4 e6       	ldi	r30, 0x64	; 100
    234c:	f1 e0       	ldi	r31, 0x01	; 1
    234e:	a1 e8       	ldi	r26, 0x81	; 129
    2350:	b5 e0       	ldi	r27, 0x05	; 5
    2352:	8d 91       	ld	r24, X+
    2354:	81 93       	st	Z+, r24
    2356:	ec 36       	cpi	r30, 0x6C	; 108
    2358:	31 e0       	ldi	r19, 0x01	; 1
    235a:	f3 07       	cpc	r31, r19
    235c:	d1 f7       	brne	.-12     	; 0x2352 <tal_pib_set+0x1b6>
    235e:	80 e0       	ldi	r24, 0x00	; 0
    2360:	34 c0       	rjmp	.+104    	; 0x23ca <tal_pib_set+0x22e>
    2362:	fb 01       	movw	r30, r22
    2364:	80 81       	ld	r24, Z
    2366:	80 93 97 05 	sts	0x0597, r24	; 0x800597 <tal_pib+0x16>
    236a:	ee e6       	ldi	r30, 0x6E	; 110
    236c:	f1 e0       	ldi	r31, 0x01	; 1
    236e:	90 81       	ld	r25, Z
    2370:	88 0f       	add	r24, r24
    2372:	88 0f       	add	r24, r24
    2374:	88 0f       	add	r24, r24
    2376:	88 70       	andi	r24, 0x08	; 8
    2378:	97 7f       	andi	r25, 0xF7	; 247
    237a:	89 2b       	or	r24, r25
    237c:	80 83       	st	Z, r24
    237e:	80 e0       	ldi	r24, 0x00	; 0
    2380:	24 c0       	rjmp	.+72     	; 0x23ca <tal_pib_set+0x22e>
    2382:	81 e8       	ldi	r24, 0x81	; 129
    2384:	22 c0       	rjmp	.+68     	; 0x23ca <tal_pib_set+0x22e>
    2386:	84 ef       	ldi	r24, 0xF4	; 244
    2388:	20 c0       	rjmp	.+64     	; 0x23ca <tal_pib_set+0x22e>
    238a:	86 e8       	ldi	r24, 0x86	; 134
    238c:	1e c0       	rjmp	.+60     	; 0x23ca <tal_pib_set+0x22e>
    238e:	88 ee       	ldi	r24, 0xE8	; 232
    2390:	1c c0       	rjmp	.+56     	; 0x23ca <tal_pib_set+0x22e>
    2392:	86 e8       	ldi	r24, 0x86	; 134
    2394:	1a c0       	rjmp	.+52     	; 0x23ca <tal_pib_set+0x22e>
    2396:	88 ee       	ldi	r24, 0xE8	; 232
    2398:	18 c0       	rjmp	.+48     	; 0x23ca <tal_pib_set+0x22e>
    239a:	80 93 94 05 	sts	0x0594, r24	; 0x800594 <tal_pib+0x13>
    239e:	e8 e4       	ldi	r30, 0x48	; 72
    23a0:	f1 e0       	ldi	r31, 0x01	; 1
    23a2:	90 81       	ld	r25, Z
    23a4:	90 7e       	andi	r25, 0xE0	; 224
    23a6:	8f 71       	andi	r24, 0x1F	; 31
    23a8:	89 2b       	or	r24, r25
    23aa:	80 83       	st	Z, r24
    23ac:	80 e0       	ldi	r24, 0x00	; 0
    23ae:	0d c0       	rjmp	.+26     	; 0x23ca <tal_pib_set+0x22e>
    23b0:	88 81       	ld	r24, Y
    23b2:	80 93 94 05 	sts	0x0594, r24	; 0x800594 <tal_pib+0x13>
    23b6:	e8 e4       	ldi	r30, 0x48	; 72
    23b8:	f1 e0       	ldi	r31, 0x01	; 1
    23ba:	90 81       	ld	r25, Z
    23bc:	90 7e       	andi	r25, 0xE0	; 224
    23be:	8f 71       	andi	r24, 0x1F	; 31
    23c0:	89 2b       	or	r24, r25
    23c2:	80 83       	st	Z, r24
    23c4:	86 e1       	ldi	r24, 0x16	; 22
    23c6:	d8 d9       	rcall	.-3152   	; 0x1778 <set_trx_state>
    23c8:	80 e0       	ldi	r24, 0x00	; 0
    23ca:	df 91       	pop	r29
    23cc:	cf 91       	pop	r28
    23ce:	08 95       	ret

000023d0 <__portable_avr_delay_cycles>:
    23d0:	04 c0       	rjmp	.+8      	; 0x23da <__portable_avr_delay_cycles+0xa>
    23d2:	61 50       	subi	r22, 0x01	; 1
    23d4:	71 09       	sbc	r23, r1
    23d6:	81 09       	sbc	r24, r1
    23d8:	91 09       	sbc	r25, r1
    23da:	61 15       	cp	r22, r1
    23dc:	71 05       	cpc	r23, r1
    23de:	81 05       	cpc	r24, r1
    23e0:	91 05       	cpc	r25, r1
    23e2:	b9 f7       	brne	.-18     	; 0x23d2 <__portable_avr_delay_cycles+0x2>
    23e4:	08 95       	ret

000023e6 <handle_received_frame_irq>:
    23e6:	cf 92       	push	r12
    23e8:	df 92       	push	r13
    23ea:	ef 92       	push	r14
    23ec:	ff 92       	push	r15
    23ee:	0f 93       	push	r16
    23f0:	1f 93       	push	r17
    23f2:	cf 93       	push	r28
    23f4:	df 93       	push	r29
    23f6:	e0 91 69 04 	lds	r30, 0x0469	; 0x800469 <tal_rx_buffer>
    23fa:	f0 91 6a 04 	lds	r31, 0x046A	; 0x80046a <tal_rx_buffer+0x1>
    23fe:	30 97       	sbiw	r30, 0x00	; 0
    2400:	71 f4       	brne	.+28     	; 0x241e <handle_received_frame_irq+0x38>
    2402:	cc e4       	ldi	r28, 0x4C	; 76
    2404:	d1 e0       	ldi	r29, 0x01	; 1
    2406:	88 81       	ld	r24, Y
    2408:	8f 77       	andi	r24, 0x7F	; 127
    240a:	88 83       	st	Y, r24
    240c:	63 e0       	ldi	r22, 0x03	; 3
    240e:	70 e0       	ldi	r23, 0x00	; 0
    2410:	80 e0       	ldi	r24, 0x00	; 0
    2412:	90 e0       	ldi	r25, 0x00	; 0
    2414:	dd df       	rcall	.-70     	; 0x23d0 <__portable_avr_delay_cycles>
    2416:	88 81       	ld	r24, Y
    2418:	80 68       	ori	r24, 0x80	; 128
    241a:	88 83       	st	Y, r24
    241c:	49 c0       	rjmp	.+146    	; 0x24b0 <handle_received_frame_irq+0xca>
    241e:	00 91 47 01 	lds	r16, 0x0147	; 0x800147 <__TEXT_REGION_LENGTH__+0x7c0147>
    2422:	10 91 7b 01 	lds	r17, 0x017B	; 0x80017b <__TEXT_REGION_LENGTH__+0x7c017b>
    2426:	11 23       	and	r17, r17
    2428:	0c f4       	brge	.+2      	; 0x242c <handle_received_frame_irq+0x46>
    242a:	42 c0       	rjmp	.+132    	; 0x24b0 <handle_received_frame_irq+0xca>
    242c:	e0 80       	ld	r14, Z
    242e:	f1 80       	ldd	r15, Z+1	; 0x01
    2430:	82 e0       	ldi	r24, 0x02	; 2
    2432:	81 0f       	add	r24, r17
    2434:	eb e8       	ldi	r30, 0x8B	; 139
    2436:	f0 e0       	ldi	r31, 0x00	; 0
    2438:	e8 1b       	sub	r30, r24
    243a:	f1 09       	sbc	r31, r1
    243c:	e7 01       	movw	r28, r14
    243e:	ce 0f       	add	r28, r30
    2440:	df 1f       	adc	r29, r31
    2442:	c1 2e       	mov	r12, r17
    2444:	d1 2c       	mov	r13, r1
    2446:	a6 01       	movw	r20, r12
    2448:	4f 5f       	subi	r20, 0xFF	; 255
    244a:	5f 4f       	sbci	r21, 0xFF	; 255
    244c:	60 e8       	ldi	r22, 0x80	; 128
    244e:	71 e0       	ldi	r23, 0x01	; 1
    2450:	ce 01       	movw	r24, r28
    2452:	0e 94 92 1d 	call	0x3b24	; 0x3b24 <memcpy>
    2456:	fe 01       	movw	r30, r28
    2458:	12 93       	st	-Z, r17
    245a:	d7 01       	movw	r26, r14
    245c:	18 96       	adiw	r26, 0x08	; 8
    245e:	fc 93       	st	X, r31
    2460:	ee 93       	st	-X, r30
    2462:	17 97       	sbiw	r26, 0x07	; 7
    2464:	ec 0d       	add	r30, r12
    2466:	fd 1d       	adc	r31, r13
    2468:	02 83       	std	Z+2, r16	; 0x02
    246a:	60 91 69 04 	lds	r22, 0x0469	; 0x800469 <tal_rx_buffer>
    246e:	70 91 6a 04 	lds	r23, 0x046A	; 0x80046a <tal_rx_buffer+0x1>
    2472:	8a e7       	ldi	r24, 0x7A	; 122
    2474:	95 e0       	ldi	r25, 0x05	; 5
    2476:	2c d9       	rcall	.-3496   	; 0x16d0 <qmm_queue_append>
    2478:	8b e8       	ldi	r24, 0x8B	; 139
    247a:	92 d8       	rcall	.-3804   	; 0x15a0 <bmm_buffer_alloc>
    247c:	90 93 6a 04 	sts	0x046A, r25	; 0x80046a <tal_rx_buffer+0x1>
    2480:	80 93 69 04 	sts	0x0469, r24	; 0x800469 <tal_rx_buffer>
    2484:	89 2b       	or	r24, r25
    2486:	21 f4       	brne	.+8      	; 0x2490 <handle_received_frame_irq+0xaa>
    2488:	81 e0       	ldi	r24, 0x01	; 1
    248a:	80 93 79 05 	sts	0x0579, r24	; 0x800579 <tal_rx_on_required>
    248e:	0d c0       	rjmp	.+26     	; 0x24aa <handle_received_frame_irq+0xc4>
    2490:	cc e4       	ldi	r28, 0x4C	; 76
    2492:	d1 e0       	ldi	r29, 0x01	; 1
    2494:	88 81       	ld	r24, Y
    2496:	8f 77       	andi	r24, 0x7F	; 127
    2498:	88 83       	st	Y, r24
    249a:	63 e0       	ldi	r22, 0x03	; 3
    249c:	70 e0       	ldi	r23, 0x00	; 0
    249e:	80 e0       	ldi	r24, 0x00	; 0
    24a0:	90 e0       	ldi	r25, 0x00	; 0
    24a2:	96 df       	rcall	.-212    	; 0x23d0 <__portable_avr_delay_cycles>
    24a4:	88 81       	ld	r24, Y
    24a6:	80 68       	ori	r24, 0x80	; 128
    24a8:	88 83       	st	Y, r24
    24aa:	80 e4       	ldi	r24, 0x40	; 64
    24ac:	80 93 4f 01 	sts	0x014F, r24	; 0x80014f <__TEXT_REGION_LENGTH__+0x7c014f>
    24b0:	df 91       	pop	r29
    24b2:	cf 91       	pop	r28
    24b4:	1f 91       	pop	r17
    24b6:	0f 91       	pop	r16
    24b8:	ff 90       	pop	r15
    24ba:	ef 90       	pop	r14
    24bc:	df 90       	pop	r13
    24be:	cf 90       	pop	r12
    24c0:	08 95       	ret

000024c2 <process_incoming_frame>:
    24c2:	cf 93       	push	r28
    24c4:	df 93       	push	r29
    24c6:	ac 01       	movw	r20, r24
    24c8:	fc 01       	movw	r30, r24
    24ca:	c0 81       	ld	r28, Z
    24cc:	d1 81       	ldd	r29, Z+1	; 0x01
    24ce:	af 81       	ldd	r26, Y+7	; 0x07
    24d0:	b8 85       	ldd	r27, Y+8	; 0x08
    24d2:	8c 91       	ld	r24, X
    24d4:	80 93 a1 05 	sts	0x05A1, r24	; 0x8005a1 <last_frame_length>
    24d8:	e8 2f       	mov	r30, r24
    24da:	f0 e0       	ldi	r31, 0x00	; 0
    24dc:	31 96       	adiw	r30, 0x01	; 1
    24de:	ea 0f       	add	r30, r26
    24e0:	fb 1f       	adc	r31, r27
    24e2:	80 81       	ld	r24, Z
    24e4:	31 81       	ldd	r19, Z+1	; 0x01
    24e6:	3d 33       	cpi	r19, 0x3D	; 61
    24e8:	20 f4       	brcc	.+8      	; 0x24f2 <process_incoming_frame+0x30>
    24ea:	31 11       	cpse	r19, r1
    24ec:	03 c0       	rjmp	.+6      	; 0x24f4 <process_incoming_frame+0x32>
    24ee:	31 e0       	ldi	r19, 0x01	; 1
    24f0:	01 c0       	rjmp	.+2      	; 0x24f4 <process_incoming_frame+0x32>
    24f2:	3c e3       	ldi	r19, 0x3C	; 60
    24f4:	82 95       	swap	r24
    24f6:	86 95       	lsr	r24
    24f8:	86 95       	lsr	r24
    24fa:	83 70       	andi	r24, 0x03	; 3
    24fc:	2f ef       	ldi	r18, 0xFF	; 255
    24fe:	82 9f       	mul	r24, r18
    2500:	c0 01       	movw	r24, r0
    2502:	11 24       	eor	r1, r1
    2504:	38 9f       	mul	r19, r24
    2506:	b0 01       	movw	r22, r0
    2508:	39 9f       	mul	r19, r25
    250a:	70 0d       	add	r23, r0
    250c:	11 24       	eor	r1, r1
    250e:	9b 01       	movw	r18, r22
    2510:	a3 e8       	ldi	r26, 0x83	; 131
    2512:	bd e2       	ldi	r27, 0x2D	; 45
    2514:	0e 94 06 1d 	call	0x3a0c	; 0x3a0c <__umulhisi3>
    2518:	96 95       	lsr	r25
    251a:	87 95       	ror	r24
    251c:	92 95       	swap	r25
    251e:	82 95       	swap	r24
    2520:	8f 70       	andi	r24, 0x0F	; 15
    2522:	89 27       	eor	r24, r25
    2524:	9f 70       	andi	r25, 0x0F	; 15
    2526:	89 27       	eor	r24, r25
    2528:	8f 3f       	cpi	r24, 0xFF	; 255
    252a:	91 05       	cpc	r25, r1
    252c:	11 f0       	breq	.+4      	; 0x2532 <process_incoming_frame+0x70>
    252e:	08 f0       	brcs	.+2      	; 0x2532 <process_incoming_frame+0x70>
    2530:	8f ef       	ldi	r24, 0xFF	; 255
    2532:	80 83       	st	Z, r24
    2534:	5a 83       	std	Y+2, r21	; 0x02
    2536:	49 83       	std	Y+1, r20	; 0x01
    2538:	ce 01       	movw	r24, r28
    253a:	ca d6       	rcall	.+3476   	; 0x32d0 <tal_rx_frame_cb>
    253c:	df 91       	pop	r29
    253e:	cf 91       	pop	r28
    2540:	08 95       	ret

00002542 <tal_rx_enable>:
    2542:	90 91 a5 05 	lds	r25, 0x05A5	; 0x8005a5 <tal_state>
    2546:	91 11       	cpse	r25, r1
    2548:	16 c0       	rjmp	.+44     	; 0x2576 <tal_rx_enable+0x34>
    254a:	88 30       	cpi	r24, 0x08	; 8
    254c:	29 f4       	brne	.+10     	; 0x2558 <tal_rx_enable+0x16>
    254e:	14 d9       	rcall	.-3544   	; 0x1778 <set_trx_state>
    2550:	10 92 79 05 	sts	0x0579, r1	; 0x800579 <tal_rx_on_required>
    2554:	88 e0       	ldi	r24, 0x08	; 8
    2556:	08 95       	ret
    2558:	80 91 69 04 	lds	r24, 0x0469	; 0x800469 <tal_rx_buffer>
    255c:	90 91 6a 04 	lds	r25, 0x046A	; 0x80046a <tal_rx_buffer+0x1>
    2560:	89 2b       	or	r24, r25
    2562:	21 f0       	breq	.+8      	; 0x256c <tal_rx_enable+0x2a>
    2564:	86 e1       	ldi	r24, 0x16	; 22
    2566:	08 d9       	rcall	.-3568   	; 0x1778 <set_trx_state>
    2568:	86 e0       	ldi	r24, 0x06	; 6
    256a:	08 95       	ret
    256c:	81 e0       	ldi	r24, 0x01	; 1
    256e:	80 93 79 05 	sts	0x0579, r24	; 0x800579 <tal_rx_on_required>
    2572:	86 e0       	ldi	r24, 0x06	; 6
    2574:	08 95       	ret
    2576:	86 e8       	ldi	r24, 0x86	; 134
    2578:	08 95       	ret

0000257a <__portable_avr_delay_cycles>:
    257a:	04 c0       	rjmp	.+8      	; 0x2584 <__portable_avr_delay_cycles+0xa>
    257c:	61 50       	subi	r22, 0x01	; 1
    257e:	71 09       	sbc	r23, r1
    2580:	81 09       	sbc	r24, r1
    2582:	91 09       	sbc	r25, r1
    2584:	61 15       	cp	r22, r1
    2586:	71 05       	cpc	r23, r1
    2588:	81 05       	cpc	r24, r1
    258a:	91 05       	cpc	r25, r1
    258c:	b9 f7       	brne	.-18     	; 0x257c <__portable_avr_delay_cycles+0x2>
    258e:	08 95       	ret

00002590 <tx_done_handling>:
    2590:	10 92 a5 05 	sts	0x05A5, r1	; 0x8005a5 <tal_state>
    2594:	80 91 73 04 	lds	r24, 0x0473	; 0x800473 <trx_trac_status>
    2598:	83 30       	cpi	r24, 0x03	; 3
    259a:	69 f0       	breq	.+26     	; 0x25b6 <tx_done_handling+0x26>
    259c:	28 f4       	brcc	.+10     	; 0x25a8 <tx_done_handling+0x18>
    259e:	88 23       	and	r24, r24
    25a0:	91 f0       	breq	.+36     	; 0x25c6 <tx_done_handling+0x36>
    25a2:	81 30       	cpi	r24, 0x01	; 1
    25a4:	31 f0       	breq	.+12     	; 0x25b2 <tx_done_handling+0x22>
    25a6:	0d c0       	rjmp	.+26     	; 0x25c2 <tx_done_handling+0x32>
    25a8:	85 30       	cpi	r24, 0x05	; 5
    25aa:	39 f0       	breq	.+14     	; 0x25ba <tx_done_handling+0x2a>
    25ac:	87 30       	cpi	r24, 0x07	; 7
    25ae:	39 f0       	breq	.+14     	; 0x25be <tx_done_handling+0x2e>
    25b0:	08 c0       	rjmp	.+16     	; 0x25c2 <tx_done_handling+0x32>
    25b2:	87 e8       	ldi	r24, 0x87	; 135
    25b4:	09 c0       	rjmp	.+18     	; 0x25c8 <tx_done_handling+0x38>
    25b6:	81 ee       	ldi	r24, 0xE1	; 225
    25b8:	07 c0       	rjmp	.+14     	; 0x25c8 <tx_done_handling+0x38>
    25ba:	89 ee       	ldi	r24, 0xE9	; 233
    25bc:	05 c0       	rjmp	.+10     	; 0x25c8 <tx_done_handling+0x38>
    25be:	85 e8       	ldi	r24, 0x85	; 133
    25c0:	03 c0       	rjmp	.+6      	; 0x25c8 <tx_done_handling+0x38>
    25c2:	85 e8       	ldi	r24, 0x85	; 133
    25c4:	01 c0       	rjmp	.+2      	; 0x25c8 <tx_done_handling+0x38>
    25c6:	80 e0       	ldi	r24, 0x00	; 0
    25c8:	60 91 7f 05 	lds	r22, 0x057F	; 0x80057f <mac_frame_ptr>
    25cc:	70 91 80 05 	lds	r23, 0x0580	; 0x800580 <mac_frame_ptr+0x1>
    25d0:	7c c6       	rjmp	.+3320   	; 0x32ca <tal_tx_frame_done_cb>
    25d2:	08 95       	ret

000025d4 <send_frame>:
    25d4:	1f 93       	push	r17
    25d6:	cf 93       	push	r28
    25d8:	df 93       	push	r29
    25da:	1f 92       	push	r1
    25dc:	cd b7       	in	r28, 0x3d	; 61
    25de:	de b7       	in	r29, 0x3e	; 62
    25e0:	18 2f       	mov	r17, r24
    25e2:	66 23       	and	r22, r22
    25e4:	81 f0       	breq	.+32     	; 0x2606 <send_frame+0x32>
    25e6:	ec e6       	ldi	r30, 0x6C	; 108
    25e8:	f1 e0       	ldi	r31, 0x01	; 1
    25ea:	20 81       	ld	r18, Z
    25ec:	90 91 9d 05 	lds	r25, 0x059D	; 0x80059d <tal_pib+0x1c>
    25f0:	30 e1       	ldi	r19, 0x10	; 16
    25f2:	93 9f       	mul	r25, r19
    25f4:	c0 01       	movw	r24, r0
    25f6:	11 24       	eor	r1, r1
    25f8:	92 2f       	mov	r25, r18
    25fa:	9f 70       	andi	r25, 0x0F	; 15
    25fc:	89 2b       	or	r24, r25
    25fe:	80 83       	st	Z, r24
    2600:	12 30       	cpi	r17, 0x02	; 2
    2602:	e0 f4       	brcc	.+56     	; 0x263c <send_frame+0x68>
    2604:	08 c0       	rjmp	.+16     	; 0x2616 <send_frame+0x42>
    2606:	ec e6       	ldi	r30, 0x6C	; 108
    2608:	f1 e0       	ldi	r31, 0x01	; 1
    260a:	80 81       	ld	r24, Z
    260c:	8f 70       	andi	r24, 0x0F	; 15
    260e:	80 83       	st	Z, r24
    2610:	12 30       	cpi	r17, 0x02	; 2
    2612:	a0 f4       	brcc	.+40     	; 0x263c <send_frame+0x68>
    2614:	0d c0       	rjmp	.+26     	; 0x2630 <send_frame+0x5c>
    2616:	ec e6       	ldi	r30, 0x6C	; 108
    2618:	f1 e0       	ldi	r31, 0x01	; 1
    261a:	80 81       	ld	r24, Z
    261c:	90 91 95 05 	lds	r25, 0x0595	; 0x800595 <tal_pib+0x14>
    2620:	99 0f       	add	r25, r25
    2622:	9e 70       	andi	r25, 0x0E	; 14
    2624:	81 7f       	andi	r24, 0xF1	; 241
    2626:	89 2b       	or	r24, r25
    2628:	80 83       	st	Z, r24
    262a:	10 92 6f 01 	sts	0x016F, r1	; 0x80016f <__TEXT_REGION_LENGTH__+0x7c016f>
    262e:	1a c0       	rjmp	.+52     	; 0x2664 <send_frame+0x90>
    2630:	ec e6       	ldi	r30, 0x6C	; 108
    2632:	f1 e0       	ldi	r31, 0x01	; 1
    2634:	80 81       	ld	r24, Z
    2636:	8e 60       	ori	r24, 0x0E	; 14
    2638:	80 83       	st	Z, r24
    263a:	14 c0       	rjmp	.+40     	; 0x2664 <send_frame+0x90>
    263c:	e1 e8       	ldi	r30, 0x81	; 129
    263e:	f5 e0       	ldi	r31, 0x05	; 5
    2640:	83 8d       	ldd	r24, Z+27	; 0x1b
    2642:	20 e1       	ldi	r18, 0x10	; 16
    2644:	82 9f       	mul	r24, r18
    2646:	c0 01       	movw	r24, r0
    2648:	11 24       	eor	r1, r1
    264a:	95 89       	ldd	r25, Z+21	; 0x15
    264c:	89 2b       	or	r24, r25
    264e:	80 93 6f 01 	sts	0x016F, r24	; 0x80016f <__TEXT_REGION_LENGTH__+0x7c016f>
    2652:	ac e6       	ldi	r26, 0x6C	; 108
    2654:	b1 e0       	ldi	r27, 0x01	; 1
    2656:	8c 91       	ld	r24, X
    2658:	94 89       	ldd	r25, Z+20	; 0x14
    265a:	99 0f       	add	r25, r25
    265c:	9e 70       	andi	r25, 0x0E	; 14
    265e:	81 7f       	andi	r24, 0xF1	; 241
    2660:	89 2b       	or	r24, r25
    2662:	8c 93       	st	X, r24
    2664:	89 e1       	ldi	r24, 0x19	; 25
    2666:	88 d8       	rcall	.-3824   	; 0x1778 <set_trx_state>
    2668:	89 31       	cpi	r24, 0x19	; 25
    266a:	e1 f7       	brne	.-8      	; 0x2664 <send_frame+0x90>
    266c:	11 30       	cpi	r17, 0x01	; 1
    266e:	a1 f4       	brne	.+40     	; 0x2698 <send_frame+0xc4>
    2670:	80 91 a1 05 	lds	r24, 0x05A1	; 0x8005a1 <last_frame_length>
    2674:	83 31       	cpi	r24, 0x13	; 19
    2676:	40 f0       	brcs	.+16     	; 0x2688 <send_frame+0xb4>
    2678:	61 e0       	ldi	r22, 0x01	; 1
    267a:	73 e0       	ldi	r23, 0x03	; 3
    267c:	80 e0       	ldi	r24, 0x00	; 0
    267e:	90 e0       	ldi	r25, 0x00	; 0
    2680:	7c df       	rcall	.-264    	; 0x257a <__portable_avr_delay_cycles>
    2682:	10 92 a1 05 	sts	0x05A1, r1	; 0x8005a1 <last_frame_length>
    2686:	0d c0       	rjmp	.+26     	; 0x26a2 <send_frame+0xce>
    2688:	6b ea       	ldi	r22, 0xAB	; 171
    268a:	70 e0       	ldi	r23, 0x00	; 0
    268c:	80 e0       	ldi	r24, 0x00	; 0
    268e:	90 e0       	ldi	r25, 0x00	; 0
    2690:	74 df       	rcall	.-280    	; 0x257a <__portable_avr_delay_cycles>
    2692:	10 92 a1 05 	sts	0x05A1, r1	; 0x8005a1 <last_frame_length>
    2696:	05 c0       	rjmp	.+10     	; 0x26a2 <send_frame+0xce>
    2698:	6c e0       	ldi	r22, 0x0C	; 12
    269a:	70 e0       	ldi	r23, 0x00	; 0
    269c:	80 e0       	ldi	r24, 0x00	; 0
    269e:	90 e0       	ldi	r25, 0x00	; 0
    26a0:	6c df       	rcall	.-296    	; 0x257a <__portable_avr_delay_cycles>
    26a2:	8f b7       	in	r24, 0x3f	; 63
    26a4:	89 83       	std	Y+1, r24	; 0x01
    26a6:	f8 94       	cli
    26a8:	19 81       	ldd	r17, Y+1	; 0x01
    26aa:	e9 e3       	ldi	r30, 0x39	; 57
    26ac:	f1 e0       	ldi	r31, 0x01	; 1
    26ae:	80 81       	ld	r24, Z
    26b0:	82 60       	ori	r24, 0x02	; 2
    26b2:	80 83       	st	Z, r24
    26b4:	00 00       	nop
    26b6:	00 00       	nop
    26b8:	80 81       	ld	r24, Z
    26ba:	8d 7f       	andi	r24, 0xFD	; 253
    26bc:	80 83       	st	Z, r24
    26be:	60 91 a2 05 	lds	r22, 0x05A2	; 0x8005a2 <tal_frame_to_tx>
    26c2:	70 91 a3 05 	lds	r23, 0x05A3	; 0x8005a3 <tal_frame_to_tx+0x1>
    26c6:	fb 01       	movw	r30, r22
    26c8:	40 81       	ld	r20, Z
    26ca:	50 e0       	ldi	r21, 0x00	; 0
    26cc:	41 50       	subi	r20, 0x01	; 1
    26ce:	51 09       	sbc	r21, r1
    26d0:	80 e8       	ldi	r24, 0x80	; 128
    26d2:	91 e0       	ldi	r25, 0x01	; 1
    26d4:	0e 94 92 1d 	call	0x3b24	; 0x3b24 <memcpy>
    26d8:	81 e0       	ldi	r24, 0x01	; 1
    26da:	80 93 a5 05 	sts	0x05A5, r24	; 0x8005a5 <tal_state>
    26de:	1f bf       	out	0x3f, r17	; 63
    26e0:	0f 90       	pop	r0
    26e2:	df 91       	pop	r29
    26e4:	cf 91       	pop	r28
    26e6:	1f 91       	pop	r17
    26e8:	08 95       	ret

000026ea <tal_tx_frame>:
    26ea:	fc 01       	movw	r30, r24
    26ec:	90 91 a5 05 	lds	r25, 0x05A5	; 0x8005a5 <tal_state>
    26f0:	91 11       	cpse	r25, r1
    26f2:	16 c0       	rjmp	.+44     	; 0x2720 <tal_tx_frame+0x36>
    26f4:	f0 93 80 05 	sts	0x0580, r31	; 0x800580 <mac_frame_ptr+0x1>
    26f8:	e0 93 7f 05 	sts	0x057F, r30	; 0x80057f <mac_frame_ptr>
    26fc:	07 80       	ldd	r0, Z+7	; 0x07
    26fe:	f0 85       	ldd	r31, Z+8	; 0x08
    2700:	e0 2d       	mov	r30, r0
    2702:	f0 93 a3 05 	sts	0x05A3, r31	; 0x8005a3 <tal_frame_to_tx+0x1>
    2706:	e0 93 a2 05 	sts	0x05A2, r30	; 0x8005a2 <tal_frame_to_tx>
    270a:	80 81       	ld	r24, Z
    270c:	81 50       	subi	r24, 0x01	; 1
    270e:	80 93 a1 05 	sts	0x05A1, r24	; 0x8005a1 <last_frame_length>
    2712:	ef 2b       	or	r30, r31
    2714:	39 f0       	breq	.+14     	; 0x2724 <tal_tx_frame+0x3a>
    2716:	86 2f       	mov	r24, r22
    2718:	64 2f       	mov	r22, r20
    271a:	5c df       	rcall	.-328    	; 0x25d4 <send_frame>
    271c:	80 e0       	ldi	r24, 0x00	; 0
    271e:	08 95       	ret
    2720:	86 e8       	ldi	r24, 0x86	; 134
    2722:	08 95       	ret
    2724:	88 ee       	ldi	r24, 0xE8	; 232
    2726:	08 95       	ret

00002728 <handle_tx_end_irq>:
    2728:	80 91 a5 05 	lds	r24, 0x05A5	; 0x8005a5 <tal_state>
    272c:	81 30       	cpi	r24, 0x01	; 1
    272e:	c1 f4       	brne	.+48     	; 0x2760 <handle_tx_end_irq+0x38>
    2730:	80 91 42 01 	lds	r24, 0x0142	; 0x800142 <__TEXT_REGION_LENGTH__+0x7c0142>
    2734:	82 95       	swap	r24
    2736:	86 95       	lsr	r24
    2738:	87 70       	andi	r24, 0x07	; 7
    273a:	80 93 73 04 	sts	0x0473, r24	; 0x800473 <trx_trac_status>
    273e:	82 e0       	ldi	r24, 0x02	; 2
    2740:	80 93 a5 05 	sts	0x05A5, r24	; 0x8005a5 <tal_state>
    2744:	80 91 69 04 	lds	r24, 0x0469	; 0x800469 <tal_rx_buffer>
    2748:	90 91 6a 04 	lds	r25, 0x046A	; 0x80046a <tal_rx_buffer+0x1>
    274c:	89 2b       	or	r24, r25
    274e:	31 f4       	brne	.+12     	; 0x275c <handle_tx_end_irq+0x34>
    2750:	89 e0       	ldi	r24, 0x09	; 9
    2752:	12 d8       	rcall	.-4060   	; 0x1778 <set_trx_state>
    2754:	81 e0       	ldi	r24, 0x01	; 1
    2756:	80 93 79 05 	sts	0x0579, r24	; 0x800579 <tal_rx_on_required>
    275a:	08 95       	ret
    275c:	86 e1       	ldi	r24, 0x16	; 22
    275e:	0c c8       	rjmp	.-4072   	; 0x1778 <set_trx_state>
    2760:	08 95       	ret

00002762 <tal_ant_div_config>:
    2762:	88 23       	and	r24, r24
    2764:	29 f1       	breq	.+74     	; 0x27b0 <tal_ant_div_config+0x4e>
    2766:	ed e4       	ldi	r30, 0x4D	; 77
    2768:	f1 e0       	ldi	r31, 0x01	; 1
    276a:	80 81       	ld	r24, Z
    276c:	8c 7f       	andi	r24, 0xFC	; 252
    276e:	80 83       	st	Z, r24
    2770:	80 81       	ld	r24, Z
    2772:	88 60       	ori	r24, 0x08	; 8
    2774:	80 83       	st	Z, r24
    2776:	aa e4       	ldi	r26, 0x4A	; 74
    2778:	b1 e0       	ldi	r27, 0x01	; 1
    277a:	8c 91       	ld	r24, X
    277c:	80 7f       	andi	r24, 0xF0	; 240
    277e:	83 60       	ori	r24, 0x03	; 3
    2780:	8c 93       	st	X, r24
    2782:	80 81       	ld	r24, Z
    2784:	84 60       	ori	r24, 0x04	; 4
    2786:	80 83       	st	Z, r24
    2788:	80 81       	ld	r24, Z
    278a:	83 70       	andi	r24, 0x03	; 3
    278c:	09 f0       	breq	.+2      	; 0x2790 <tal_ant_div_config+0x2e>
    278e:	54 c0       	rjmp	.+168    	; 0x2838 <tal_ant_div_config+0xd6>
    2790:	80 91 4d 01 	lds	r24, 0x014D	; 0x80014d <__TEXT_REGION_LENGTH__+0x7c014d>
    2794:	83 ff       	sbrs	r24, 3
    2796:	52 c0       	rjmp	.+164    	; 0x283c <tal_ant_div_config+0xda>
    2798:	80 91 4d 01 	lds	r24, 0x014D	; 0x80014d <__TEXT_REGION_LENGTH__+0x7c014d>
    279c:	82 ff       	sbrs	r24, 2
    279e:	50 c0       	rjmp	.+160    	; 0x2840 <tal_ant_div_config+0xde>
    27a0:	80 91 4a 01 	lds	r24, 0x014A	; 0x80014a <__TEXT_REGION_LENGTH__+0x7c014a>
    27a4:	8f 70       	andi	r24, 0x0F	; 15
    27a6:	83 30       	cpi	r24, 0x03	; 3
    27a8:	09 f0       	breq	.+2      	; 0x27ac <tal_ant_div_config+0x4a>
    27aa:	4c c0       	rjmp	.+152    	; 0x2844 <tal_ant_div_config+0xe2>
    27ac:	80 e0       	ldi	r24, 0x00	; 0
    27ae:	08 95       	ret
    27b0:	ed e4       	ldi	r30, 0x4D	; 77
    27b2:	f1 e0       	ldi	r31, 0x01	; 1
    27b4:	80 81       	ld	r24, Z
    27b6:	87 7f       	andi	r24, 0xF7	; 247
    27b8:	80 83       	st	Z, r24
    27ba:	aa e4       	ldi	r26, 0x4A	; 74
    27bc:	b1 e0       	ldi	r27, 0x01	; 1
    27be:	8c 91       	ld	r24, X
    27c0:	80 7f       	andi	r24, 0xF0	; 240
    27c2:	87 60       	ori	r24, 0x07	; 7
    27c4:	8c 93       	st	X, r24
    27c6:	80 81       	ld	r24, Z
    27c8:	84 60       	ori	r24, 0x04	; 4
    27ca:	80 83       	st	Z, r24
    27cc:	61 30       	cpi	r22, 0x01	; 1
    27ce:	31 f4       	brne	.+12     	; 0x27dc <tal_ant_div_config+0x7a>
    27d0:	80 81       	ld	r24, Z
    27d2:	8c 7f       	andi	r24, 0xFC	; 252
    27d4:	81 60       	ori	r24, 0x01	; 1
    27d6:	80 83       	st	Z, r24
    27d8:	85 e8       	ldi	r24, 0x85	; 133
    27da:	17 c0       	rjmp	.+46     	; 0x280a <tal_ant_div_config+0xa8>
    27dc:	62 30       	cpi	r22, 0x02	; 2
    27de:	41 f4       	brne	.+16     	; 0x27f0 <tal_ant_div_config+0x8e>
    27e0:	ed e4       	ldi	r30, 0x4D	; 77
    27e2:	f1 e0       	ldi	r31, 0x01	; 1
    27e4:	80 81       	ld	r24, Z
    27e6:	8c 7f       	andi	r24, 0xFC	; 252
    27e8:	82 60       	ori	r24, 0x02	; 2
    27ea:	80 83       	st	Z, r24
    27ec:	85 e8       	ldi	r24, 0x85	; 133
    27ee:	0d c0       	rjmp	.+26     	; 0x280a <tal_ant_div_config+0xa8>
    27f0:	66 23       	and	r22, r22
    27f2:	11 f0       	breq	.+4      	; 0x27f8 <tal_ant_div_config+0x96>
    27f4:	63 30       	cpi	r22, 0x03	; 3
    27f6:	41 f4       	brne	.+16     	; 0x2808 <tal_ant_div_config+0xa6>
    27f8:	ed e4       	ldi	r30, 0x4D	; 77
    27fa:	f1 e0       	ldi	r31, 0x01	; 1
    27fc:	80 81       	ld	r24, Z
    27fe:	8c 7f       	andi	r24, 0xFC	; 252
    2800:	80 83       	st	Z, r24
    2802:	85 e8       	ldi	r24, 0x85	; 133
    2804:	60 e0       	ldi	r22, 0x00	; 0
    2806:	01 c0       	rjmp	.+2      	; 0x280a <tal_ant_div_config+0xa8>
    2808:	88 ee       	ldi	r24, 0xE8	; 232
    280a:	20 91 4d 01 	lds	r18, 0x014D	; 0x80014d <__TEXT_REGION_LENGTH__+0x7c014d>
    280e:	23 70       	andi	r18, 0x03	; 3
    2810:	30 e0       	ldi	r19, 0x00	; 0
    2812:	70 e0       	ldi	r23, 0x00	; 0
    2814:	26 17       	cp	r18, r22
    2816:	37 07       	cpc	r19, r23
    2818:	b9 f4       	brne	.+46     	; 0x2848 <tal_ant_div_config+0xe6>
    281a:	90 91 4d 01 	lds	r25, 0x014D	; 0x80014d <__TEXT_REGION_LENGTH__+0x7c014d>
    281e:	93 fd       	sbrc	r25, 3
    2820:	15 c0       	rjmp	.+42     	; 0x284c <tal_ant_div_config+0xea>
    2822:	90 91 4d 01 	lds	r25, 0x014D	; 0x80014d <__TEXT_REGION_LENGTH__+0x7c014d>
    2826:	92 fd       	sbrc	r25, 2
    2828:	13 c0       	rjmp	.+38     	; 0x2850 <tal_ant_div_config+0xee>
    282a:	90 91 4a 01 	lds	r25, 0x014A	; 0x80014a <__TEXT_REGION_LENGTH__+0x7c014a>
    282e:	9f 70       	andi	r25, 0x0F	; 15
    2830:	93 30       	cpi	r25, 0x03	; 3
    2832:	79 f4       	brne	.+30     	; 0x2852 <tal_ant_div_config+0xf0>
    2834:	80 e0       	ldi	r24, 0x00	; 0
    2836:	08 95       	ret
    2838:	85 e8       	ldi	r24, 0x85	; 133
    283a:	08 95       	ret
    283c:	85 e8       	ldi	r24, 0x85	; 133
    283e:	08 95       	ret
    2840:	85 e8       	ldi	r24, 0x85	; 133
    2842:	08 95       	ret
    2844:	85 e8       	ldi	r24, 0x85	; 133
    2846:	08 95       	ret
    2848:	85 e8       	ldi	r24, 0x85	; 133
    284a:	08 95       	ret
    284c:	85 e8       	ldi	r24, 0x85	; 133
    284e:	08 95       	ret
    2850:	85 e8       	ldi	r24, 0x85	; 133
    2852:	08 95       	ret

00002854 <__portable_avr_delay_cycles>:
    2854:	04 c0       	rjmp	.+8      	; 0x285e <__portable_avr_delay_cycles+0xa>
    2856:	61 50       	subi	r22, 0x01	; 1
    2858:	71 09       	sbc	r23, r1
    285a:	81 09       	sbc	r24, r1
    285c:	91 09       	sbc	r25, r1
    285e:	61 15       	cp	r22, r1
    2860:	71 05       	cpc	r23, r1
    2862:	81 05       	cpc	r24, r1
    2864:	91 05       	cpc	r25, r1
    2866:	b9 f7       	brne	.-18     	; 0x2856 <__portable_avr_delay_cycles+0x2>
    2868:	08 95       	ret

0000286a <tfa_pib_set>:
    286a:	81 11       	cpse	r24, r1
    286c:	25 c0       	rjmp	.+74     	; 0x28b8 <tfa_pib_set+0x4e>
    286e:	fb 01       	movw	r30, r22
    2870:	80 81       	ld	r24, Z
    2872:	80 3d       	cpi	r24, 0xD0	; 208
    2874:	2c f0       	brlt	.+10     	; 0x2880 <tfa_pib_set+0x16>
    2876:	8f ec       	ldi	r24, 0xCF	; 207
    2878:	80 93 74 04 	sts	0x0474, r24	; 0x800474 <tfa_pib_rx_sens>
    287c:	6f e0       	ldi	r22, 0x0F	; 15
    287e:	13 c0       	rjmp	.+38     	; 0x28a6 <tfa_pib_set+0x3c>
    2880:	87 3a       	cpi	r24, 0xA7	; 167
    2882:	2c f4       	brge	.+10     	; 0x288e <tfa_pib_set+0x24>
    2884:	86 ea       	ldi	r24, 0xA6	; 166
    2886:	80 93 74 04 	sts	0x0474, r24	; 0x800474 <tfa_pib_rx_sens>
    288a:	60 e0       	ldi	r22, 0x00	; 0
    288c:	0c c0       	rjmp	.+24     	; 0x28a6 <tfa_pib_set+0x3c>
    288e:	80 93 74 04 	sts	0x0474, r24	; 0x800474 <tfa_pib_rx_sens>
    2892:	08 2e       	mov	r0, r24
    2894:	00 0c       	add	r0, r0
    2896:	99 0b       	sbc	r25, r25
    2898:	86 5a       	subi	r24, 0xA6	; 166
    289a:	9f 4f       	sbci	r25, 0xFF	; 255
    289c:	63 e0       	ldi	r22, 0x03	; 3
    289e:	70 e0       	ldi	r23, 0x00	; 0
    28a0:	0e 94 eb 1c 	call	0x39d6	; 0x39d6 <__divmodhi4>
    28a4:	6f 5f       	subi	r22, 0xFF	; 255
    28a6:	e5 e5       	ldi	r30, 0x55	; 85
    28a8:	f1 e0       	ldi	r31, 0x01	; 1
    28aa:	80 81       	ld	r24, Z
    28ac:	80 7f       	andi	r24, 0xF0	; 240
    28ae:	6f 70       	andi	r22, 0x0F	; 15
    28b0:	68 2b       	or	r22, r24
    28b2:	60 83       	st	Z, r22
    28b4:	80 e0       	ldi	r24, 0x00	; 0
    28b6:	08 95       	ret
    28b8:	84 ef       	ldi	r24, 0xF4	; 244
    28ba:	08 95       	ret

000028bc <tfa_init>:
    28bc:	86 ea       	ldi	r24, 0xA6	; 166
    28be:	80 93 74 04 	sts	0x0474, r24	; 0x800474 <tfa_pib_rx_sens>
    28c2:	64 e7       	ldi	r22, 0x74	; 116
    28c4:	74 e0       	ldi	r23, 0x04	; 4
    28c6:	80 e0       	ldi	r24, 0x00	; 0
    28c8:	d0 df       	rcall	.-96     	; 0x286a <tfa_pib_set>
    28ca:	61 e0       	ldi	r22, 0x01	; 1
    28cc:	80 e0       	ldi	r24, 0x00	; 0
    28ce:	0e 94 64 06 	call	0xcc8	; 0xcc8 <sysclk_enable_module>
    28d2:	60 e1       	ldi	r22, 0x10	; 16
    28d4:	80 e0       	ldi	r24, 0x00	; 0
    28d6:	0e 94 64 06 	call	0xcc8	; 0xcc8 <sysclk_enable_module>
    28da:	80 e0       	ldi	r24, 0x00	; 0
    28dc:	08 95       	ret

000028de <tfa_get_batmon_voltage>:
    28de:	ff 92       	push	r15
    28e0:	0f 93       	push	r16
    28e2:	1f 93       	push	r17
    28e4:	cf 93       	push	r28
    28e6:	df 93       	push	r29
    28e8:	f0 90 a0 05 	lds	r15, 0x05A0	; 0x8005a0 <tal_trx_status>
    28ec:	8f e0       	ldi	r24, 0x0F	; 15
    28ee:	f8 12       	cpse	r15, r24
    28f0:	03 c0       	rjmp	.+6      	; 0x28f8 <tfa_get_batmon_voltage+0x1a>
    28f2:	88 e0       	ldi	r24, 0x08	; 8
    28f4:	0e 94 bc 0b 	call	0x1778	; 0x1778 <set_trx_state>
    28f8:	10 92 4e 01 	sts	0x014E, r1	; 0x80014e <__TEXT_REGION_LENGTH__+0x7c014e>
    28fc:	c1 e5       	ldi	r28, 0x51	; 81
    28fe:	d1 e0       	ldi	r29, 0x01	; 1
    2900:	88 81       	ld	r24, Y
    2902:	8f 7e       	andi	r24, 0xEF	; 239
    2904:	88 83       	st	Y, r24
    2906:	88 81       	ld	r24, Y
    2908:	8f 60       	ori	r24, 0x0F	; 15
    290a:	88 83       	st	Y, r24
    290c:	67 e0       	ldi	r22, 0x07	; 7
    290e:	70 e0       	ldi	r23, 0x00	; 0
    2910:	80 e0       	ldi	r24, 0x00	; 0
    2912:	90 e0       	ldi	r25, 0x00	; 0
    2914:	9f df       	rcall	.-194    	; 0x2854 <__portable_avr_delay_cycles>
    2916:	88 81       	ld	r24, Y
    2918:	85 fd       	sbrc	r24, 5
    291a:	17 c0       	rjmp	.+46     	; 0x294a <tfa_get_batmon_voltage+0x6c>
    291c:	88 81       	ld	r24, Y
    291e:	80 7f       	andi	r24, 0xF0	; 240
    2920:	88 83       	st	Y, r24
    2922:	63 e0       	ldi	r22, 0x03	; 3
    2924:	70 e0       	ldi	r23, 0x00	; 0
    2926:	80 e0       	ldi	r24, 0x00	; 0
    2928:	90 e0       	ldi	r25, 0x00	; 0
    292a:	94 df       	rcall	.-216    	; 0x2854 <__portable_avr_delay_cycles>
    292c:	88 81       	ld	r24, Y
    292e:	21 e0       	ldi	r18, 0x01	; 1
    2930:	90 e0       	ldi	r25, 0x00	; 0
    2932:	85 fb       	bst	r24, 5
    2934:	00 27       	eor	r16, r16
    2936:	00 f9       	bld	r16, 0
    2938:	10 e0       	ldi	r17, 0x00	; 0
    293a:	85 ff       	sbrs	r24, 5
    293c:	20 e0       	ldi	r18, 0x00	; 0
    293e:	c2 2f       	mov	r28, r18
    2940:	d9 2f       	mov	r29, r25
    2942:	01 2b       	or	r16, r17
    2944:	09 f4       	brne	.+2      	; 0x2948 <tfa_get_batmon_voltage+0x6a>
    2946:	41 c0       	rjmp	.+130    	; 0x29ca <tfa_get_batmon_voltage+0xec>
    2948:	12 c0       	rjmp	.+36     	; 0x296e <tfa_get_batmon_voltage+0x90>
    294a:	c1 e5       	ldi	r28, 0x51	; 81
    294c:	d1 e0       	ldi	r29, 0x01	; 1
    294e:	88 81       	ld	r24, Y
    2950:	80 61       	ori	r24, 0x10	; 16
    2952:	88 83       	st	Y, r24
    2954:	88 81       	ld	r24, Y
    2956:	8f 60       	ori	r24, 0x0F	; 15
    2958:	88 83       	st	Y, r24
    295a:	67 e0       	ldi	r22, 0x07	; 7
    295c:	70 e0       	ldi	r23, 0x00	; 0
    295e:	80 e0       	ldi	r24, 0x00	; 0
    2960:	90 e0       	ldi	r25, 0x00	; 0
    2962:	78 df       	rcall	.-272    	; 0x2854 <__portable_avr_delay_cycles>
    2964:	88 81       	ld	r24, Y
    2966:	85 fd       	sbrc	r24, 5
    2968:	2e c0       	rjmp	.+92     	; 0x29c6 <tfa_get_batmon_voltage+0xe8>
    296a:	d1 e0       	ldi	r29, 0x01	; 1
    296c:	01 c0       	rjmp	.+2      	; 0x2970 <tfa_get_batmon_voltage+0x92>
    296e:	d0 e0       	ldi	r29, 0x00	; 0
    2970:	c0 e0       	ldi	r28, 0x00	; 0
    2972:	01 e5       	ldi	r16, 0x51	; 81
    2974:	11 e0       	ldi	r17, 0x01	; 1
    2976:	f8 01       	movw	r30, r16
    2978:	80 81       	ld	r24, Z
    297a:	80 7f       	andi	r24, 0xF0	; 240
    297c:	9c 2f       	mov	r25, r28
    297e:	9f 70       	andi	r25, 0x0F	; 15
    2980:	89 2b       	or	r24, r25
    2982:	80 83       	st	Z, r24
    2984:	63 e0       	ldi	r22, 0x03	; 3
    2986:	70 e0       	ldi	r23, 0x00	; 0
    2988:	80 e0       	ldi	r24, 0x00	; 0
    298a:	90 e0       	ldi	r25, 0x00	; 0
    298c:	63 df       	rcall	.-314    	; 0x2854 <__portable_avr_delay_cycles>
    298e:	f8 01       	movw	r30, r16
    2990:	80 81       	ld	r24, Z
    2992:	85 fd       	sbrc	r24, 5
    2994:	04 c0       	rjmp	.+8      	; 0x299e <tfa_get_batmon_voltage+0xc0>
    2996:	cc 23       	and	r28, r28
    2998:	31 f0       	breq	.+12     	; 0x29a6 <tfa_get_batmon_voltage+0xc8>
    299a:	c1 50       	subi	r28, 0x01	; 1
    299c:	04 c0       	rjmp	.+8      	; 0x29a6 <tfa_get_batmon_voltage+0xc8>
    299e:	cf 5f       	subi	r28, 0xFF	; 255
    29a0:	c0 31       	cpi	r28, 0x10	; 16
    29a2:	49 f7       	brne	.-46     	; 0x2976 <tfa_get_batmon_voltage+0x98>
    29a4:	cf e0       	ldi	r28, 0x0F	; 15
    29a6:	dd 23       	and	r29, r29
    29a8:	39 f0       	breq	.+14     	; 0x29b8 <tfa_get_batmon_voltage+0xda>
    29aa:	fb e4       	ldi	r31, 0x4B	; 75
    29ac:	cf 9f       	mul	r28, r31
    29ae:	e0 01       	movw	r28, r0
    29b0:	11 24       	eor	r1, r1
    29b2:	ca 50       	subi	r28, 0x0A	; 10
    29b4:	d6 4f       	sbci	r29, 0xF6	; 246
    29b6:	09 c0       	rjmp	.+18     	; 0x29ca <tfa_get_batmon_voltage+0xec>
    29b8:	82 e3       	ldi	r24, 0x32	; 50
    29ba:	c8 9f       	mul	r28, r24
    29bc:	e0 01       	movw	r28, r0
    29be:	11 24       	eor	r1, r1
    29c0:	cc 55       	subi	r28, 0x5C	; 92
    29c2:	d9 4f       	sbci	r29, 0xF9	; 249
    29c4:	02 c0       	rjmp	.+4      	; 0x29ca <tfa_get_batmon_voltage+0xec>
    29c6:	cf ef       	ldi	r28, 0xFF	; 255
    29c8:	df ef       	ldi	r29, 0xFF	; 255
    29ca:	ef e4       	ldi	r30, 0x4F	; 79
    29cc:	f1 e0       	ldi	r31, 0x01	; 1
    29ce:	80 81       	ld	r24, Z
    29d0:	88 e0       	ldi	r24, 0x08	; 8
    29d2:	80 83       	st	Z, r24
    29d4:	80 e4       	ldi	r24, 0x40	; 64
    29d6:	80 83       	st	Z, r24
    29d8:	84 e0       	ldi	r24, 0x04	; 4
    29da:	80 83       	st	Z, r24
    29dc:	88 e4       	ldi	r24, 0x48	; 72
    29de:	80 93 4e 01 	sts	0x014E, r24	; 0x80014e <__TEXT_REGION_LENGTH__+0x7c014e>
    29e2:	ef e0       	ldi	r30, 0x0F	; 15
    29e4:	fe 12       	cpse	r15, r30
    29e6:	03 c0       	rjmp	.+6      	; 0x29ee <tfa_get_batmon_voltage+0x110>
    29e8:	8f e0       	ldi	r24, 0x0F	; 15
    29ea:	0e 94 bc 0b 	call	0x1778	; 0x1778 <set_trx_state>
    29ee:	ce 01       	movw	r24, r28
    29f0:	df 91       	pop	r29
    29f2:	cf 91       	pop	r28
    29f4:	1f 91       	pop	r17
    29f6:	0f 91       	pop	r16
    29f8:	ff 90       	pop	r15
    29fa:	08 95       	ret

000029fc <tc_ovf_callback>:
    29fc:	0c 94 db 01 	jmp	0x3b6	; 0x3b6 <tmr_ovf_callback>
    2a00:	08 95       	ret

00002a02 <tc_cca_callback>:
    2a02:	0c 94 13 02 	jmp	0x426	; 0x426 <tmr_cca_callback>
    2a06:	08 95       	ret

00002a08 <tmr_read_count>:
    2a08:	80 91 84 00 	lds	r24, 0x0084	; 0x800084 <__TEXT_REGION_LENGTH__+0x7c0084>
    2a0c:	90 91 85 00 	lds	r25, 0x0085	; 0x800085 <__TEXT_REGION_LENGTH__+0x7c0085>
    2a10:	08 95       	ret

00002a12 <tmr_disable_cc_interrupt>:
    2a12:	ef e6       	ldi	r30, 0x6F	; 111
    2a14:	f0 e0       	ldi	r31, 0x00	; 0
    2a16:	80 81       	ld	r24, Z
    2a18:	8d 7f       	andi	r24, 0xFD	; 253
    2a1a:	80 83       	st	Z, r24
    2a1c:	b1 9a       	sbi	0x16, 1	; 22
    2a1e:	08 95       	ret

00002a20 <tmr_enable_cc_interrupt>:
    2a20:	b1 9a       	sbi	0x16, 1	; 22
    2a22:	ef e6       	ldi	r30, 0x6F	; 111
    2a24:	f0 e0       	ldi	r31, 0x00	; 0
    2a26:	80 81       	ld	r24, Z
    2a28:	82 60       	ori	r24, 0x02	; 2
    2a2a:	80 83       	st	Z, r24
    2a2c:	08 95       	ret

00002a2e <tmr_disable_ovf_interrupt>:
    2a2e:	ef e6       	ldi	r30, 0x6F	; 111
    2a30:	f0 e0       	ldi	r31, 0x00	; 0
    2a32:	80 81       	ld	r24, Z
    2a34:	81 60       	ori	r24, 0x01	; 1
    2a36:	80 83       	st	Z, r24
    2a38:	b0 9a       	sbi	0x16, 0	; 22
    2a3a:	08 95       	ret

00002a3c <tmr_stop>:
    2a3c:	80 e8       	ldi	r24, 0x80	; 128
    2a3e:	90 e0       	ldi	r25, 0x00	; 0
    2a40:	82 c3       	rjmp	.+1796   	; 0x3146 <tc_disable>
    2a42:	08 95       	ret

00002a44 <tmr_write_cmpreg>:
    2a44:	e9 e8       	ldi	r30, 0x89	; 137
    2a46:	f0 e0       	ldi	r31, 0x00	; 0
    2a48:	20 81       	ld	r18, Z
    2a4a:	92 2b       	or	r25, r18
    2a4c:	90 83       	st	Z, r25
    2a4e:	e8 e8       	ldi	r30, 0x88	; 136
    2a50:	f0 e0       	ldi	r31, 0x00	; 0
    2a52:	90 81       	ld	r25, Z
    2a54:	89 2b       	or	r24, r25
    2a56:	80 83       	st	Z, r24
    2a58:	08 95       	ret

00002a5a <save_cpu_interrupt>:
    2a5a:	cf 93       	push	r28
    2a5c:	df 93       	push	r29
    2a5e:	1f 92       	push	r1
    2a60:	cd b7       	in	r28, 0x3d	; 61
    2a62:	de b7       	in	r29, 0x3e	; 62
    2a64:	8f b7       	in	r24, 0x3f	; 63
    2a66:	89 83       	std	Y+1, r24	; 0x01
    2a68:	f8 94       	cli
    2a6a:	89 81       	ldd	r24, Y+1	; 0x01
    2a6c:	0f 90       	pop	r0
    2a6e:	df 91       	pop	r29
    2a70:	cf 91       	pop	r28
    2a72:	08 95       	ret

00002a74 <restore_cpu_interrupt>:
    2a74:	8f bf       	out	0x3f, r24	; 63
    2a76:	08 95       	ret

00002a78 <tmr_init>:
    2a78:	cf 93       	push	r28
    2a7a:	df 93       	push	r29
    2a7c:	80 e8       	ldi	r24, 0x80	; 128
    2a7e:	90 e0       	ldi	r25, 0x00	; 0
    2a80:	eb d2       	rcall	.+1494   	; 0x3058 <tc_enable>
    2a82:	6e ef       	ldi	r22, 0xFE	; 254
    2a84:	74 e1       	ldi	r23, 0x14	; 20
    2a86:	80 e8       	ldi	r24, 0x80	; 128
    2a88:	90 e0       	ldi	r25, 0x00	; 0
    2a8a:	d4 d3       	rcall	.+1960   	; 0x3234 <tc_set_overflow_interrupt_callback>
    2a8c:	cf e6       	ldi	r28, 0x6F	; 111
    2a8e:	d0 e0       	ldi	r29, 0x00	; 0
    2a90:	88 81       	ld	r24, Y
    2a92:	81 60       	ori	r24, 0x01	; 1
    2a94:	88 83       	st	Y, r24
    2a96:	61 e0       	ldi	r22, 0x01	; 1
    2a98:	75 e1       	ldi	r23, 0x15	; 21
    2a9a:	80 e8       	ldi	r24, 0x80	; 128
    2a9c:	90 e0       	ldi	r25, 0x00	; 0
    2a9e:	ea d3       	rcall	.+2004   	; 0x3274 <tc_set_compa_interrupt_callback>
    2aa0:	88 81       	ld	r24, Y
    2aa2:	8d 7f       	andi	r24, 0xFD	; 253
    2aa4:	88 83       	st	Y, r24
    2aa6:	e1 e8       	ldi	r30, 0x81	; 129
    2aa8:	f0 e0       	ldi	r31, 0x00	; 0
    2aaa:	80 81       	ld	r24, Z
    2aac:	81 60       	ori	r24, 0x01	; 1
    2aae:	80 83       	st	Z, r24
    2ab0:	88 e0       	ldi	r24, 0x08	; 8
    2ab2:	df 91       	pop	r29
    2ab4:	cf 91       	pop	r28
    2ab6:	08 95       	ret

00002ab8 <__vector_20>:
    2ab8:	1f 92       	push	r1
    2aba:	0f 92       	push	r0
    2abc:	0f b6       	in	r0, 0x3f	; 63
    2abe:	0f 92       	push	r0
    2ac0:	11 24       	eor	r1, r1
    2ac2:	0b b6       	in	r0, 0x3b	; 59
    2ac4:	0f 92       	push	r0
    2ac6:	2f 93       	push	r18
    2ac8:	3f 93       	push	r19
    2aca:	4f 93       	push	r20
    2acc:	5f 93       	push	r21
    2ace:	6f 93       	push	r22
    2ad0:	7f 93       	push	r23
    2ad2:	8f 93       	push	r24
    2ad4:	9f 93       	push	r25
    2ad6:	af 93       	push	r26
    2ad8:	bf 93       	push	r27
    2ada:	ef 93       	push	r30
    2adc:	ff 93       	push	r31
    2ade:	e0 91 93 04 	lds	r30, 0x0493	; 0x800493 <tc_tccr1_ovf_callback>
    2ae2:	f0 91 94 04 	lds	r31, 0x0494	; 0x800494 <tc_tccr1_ovf_callback+0x1>
    2ae6:	30 97       	sbiw	r30, 0x00	; 0
    2ae8:	09 f0       	breq	.+2      	; 0x2aec <__vector_20+0x34>
    2aea:	19 95       	eicall
    2aec:	ff 91       	pop	r31
    2aee:	ef 91       	pop	r30
    2af0:	bf 91       	pop	r27
    2af2:	af 91       	pop	r26
    2af4:	9f 91       	pop	r25
    2af6:	8f 91       	pop	r24
    2af8:	7f 91       	pop	r23
    2afa:	6f 91       	pop	r22
    2afc:	5f 91       	pop	r21
    2afe:	4f 91       	pop	r20
    2b00:	3f 91       	pop	r19
    2b02:	2f 91       	pop	r18
    2b04:	0f 90       	pop	r0
    2b06:	0b be       	out	0x3b, r0	; 59
    2b08:	0f 90       	pop	r0
    2b0a:	0f be       	out	0x3f, r0	; 63
    2b0c:	0f 90       	pop	r0
    2b0e:	1f 90       	pop	r1
    2b10:	18 95       	reti

00002b12 <__vector_17>:
    2b12:	1f 92       	push	r1
    2b14:	0f 92       	push	r0
    2b16:	0f b6       	in	r0, 0x3f	; 63
    2b18:	0f 92       	push	r0
    2b1a:	11 24       	eor	r1, r1
    2b1c:	0b b6       	in	r0, 0x3b	; 59
    2b1e:	0f 92       	push	r0
    2b20:	2f 93       	push	r18
    2b22:	3f 93       	push	r19
    2b24:	4f 93       	push	r20
    2b26:	5f 93       	push	r21
    2b28:	6f 93       	push	r22
    2b2a:	7f 93       	push	r23
    2b2c:	8f 93       	push	r24
    2b2e:	9f 93       	push	r25
    2b30:	af 93       	push	r26
    2b32:	bf 93       	push	r27
    2b34:	ef 93       	push	r30
    2b36:	ff 93       	push	r31
    2b38:	e0 91 91 04 	lds	r30, 0x0491	; 0x800491 <tc_tccr1_compa_callback>
    2b3c:	f0 91 92 04 	lds	r31, 0x0492	; 0x800492 <tc_tccr1_compa_callback+0x1>
    2b40:	30 97       	sbiw	r30, 0x00	; 0
    2b42:	09 f0       	breq	.+2      	; 0x2b46 <__vector_17+0x34>
    2b44:	19 95       	eicall
    2b46:	ff 91       	pop	r31
    2b48:	ef 91       	pop	r30
    2b4a:	bf 91       	pop	r27
    2b4c:	af 91       	pop	r26
    2b4e:	9f 91       	pop	r25
    2b50:	8f 91       	pop	r24
    2b52:	7f 91       	pop	r23
    2b54:	6f 91       	pop	r22
    2b56:	5f 91       	pop	r21
    2b58:	4f 91       	pop	r20
    2b5a:	3f 91       	pop	r19
    2b5c:	2f 91       	pop	r18
    2b5e:	0f 90       	pop	r0
    2b60:	0b be       	out	0x3b, r0	; 59
    2b62:	0f 90       	pop	r0
    2b64:	0f be       	out	0x3f, r0	; 63
    2b66:	0f 90       	pop	r0
    2b68:	1f 90       	pop	r1
    2b6a:	18 95       	reti

00002b6c <__vector_18>:
    2b6c:	1f 92       	push	r1
    2b6e:	0f 92       	push	r0
    2b70:	0f b6       	in	r0, 0x3f	; 63
    2b72:	0f 92       	push	r0
    2b74:	11 24       	eor	r1, r1
    2b76:	0b b6       	in	r0, 0x3b	; 59
    2b78:	0f 92       	push	r0
    2b7a:	2f 93       	push	r18
    2b7c:	3f 93       	push	r19
    2b7e:	4f 93       	push	r20
    2b80:	5f 93       	push	r21
    2b82:	6f 93       	push	r22
    2b84:	7f 93       	push	r23
    2b86:	8f 93       	push	r24
    2b88:	9f 93       	push	r25
    2b8a:	af 93       	push	r26
    2b8c:	bf 93       	push	r27
    2b8e:	ef 93       	push	r30
    2b90:	ff 93       	push	r31
    2b92:	e0 91 8f 04 	lds	r30, 0x048F	; 0x80048f <tc_tccr1_compb_callback>
    2b96:	f0 91 90 04 	lds	r31, 0x0490	; 0x800490 <tc_tccr1_compb_callback+0x1>
    2b9a:	30 97       	sbiw	r30, 0x00	; 0
    2b9c:	09 f0       	breq	.+2      	; 0x2ba0 <__vector_18+0x34>
    2b9e:	19 95       	eicall
    2ba0:	ff 91       	pop	r31
    2ba2:	ef 91       	pop	r30
    2ba4:	bf 91       	pop	r27
    2ba6:	af 91       	pop	r26
    2ba8:	9f 91       	pop	r25
    2baa:	8f 91       	pop	r24
    2bac:	7f 91       	pop	r23
    2bae:	6f 91       	pop	r22
    2bb0:	5f 91       	pop	r21
    2bb2:	4f 91       	pop	r20
    2bb4:	3f 91       	pop	r19
    2bb6:	2f 91       	pop	r18
    2bb8:	0f 90       	pop	r0
    2bba:	0b be       	out	0x3b, r0	; 59
    2bbc:	0f 90       	pop	r0
    2bbe:	0f be       	out	0x3f, r0	; 63
    2bc0:	0f 90       	pop	r0
    2bc2:	1f 90       	pop	r1
    2bc4:	18 95       	reti

00002bc6 <__vector_19>:
    2bc6:	1f 92       	push	r1
    2bc8:	0f 92       	push	r0
    2bca:	0f b6       	in	r0, 0x3f	; 63
    2bcc:	0f 92       	push	r0
    2bce:	11 24       	eor	r1, r1
    2bd0:	0b b6       	in	r0, 0x3b	; 59
    2bd2:	0f 92       	push	r0
    2bd4:	2f 93       	push	r18
    2bd6:	3f 93       	push	r19
    2bd8:	4f 93       	push	r20
    2bda:	5f 93       	push	r21
    2bdc:	6f 93       	push	r22
    2bde:	7f 93       	push	r23
    2be0:	8f 93       	push	r24
    2be2:	9f 93       	push	r25
    2be4:	af 93       	push	r26
    2be6:	bf 93       	push	r27
    2be8:	ef 93       	push	r30
    2bea:	ff 93       	push	r31
    2bec:	e0 91 8d 04 	lds	r30, 0x048D	; 0x80048d <tc_tccr1_compc_callback>
    2bf0:	f0 91 8e 04 	lds	r31, 0x048E	; 0x80048e <tc_tccr1_compc_callback+0x1>
    2bf4:	30 97       	sbiw	r30, 0x00	; 0
    2bf6:	09 f0       	breq	.+2      	; 0x2bfa <__vector_19+0x34>
    2bf8:	19 95       	eicall
    2bfa:	ff 91       	pop	r31
    2bfc:	ef 91       	pop	r30
    2bfe:	bf 91       	pop	r27
    2c00:	af 91       	pop	r26
    2c02:	9f 91       	pop	r25
    2c04:	8f 91       	pop	r24
    2c06:	7f 91       	pop	r23
    2c08:	6f 91       	pop	r22
    2c0a:	5f 91       	pop	r21
    2c0c:	4f 91       	pop	r20
    2c0e:	3f 91       	pop	r19
    2c10:	2f 91       	pop	r18
    2c12:	0f 90       	pop	r0
    2c14:	0b be       	out	0x3b, r0	; 59
    2c16:	0f 90       	pop	r0
    2c18:	0f be       	out	0x3f, r0	; 63
    2c1a:	0f 90       	pop	r0
    2c1c:	1f 90       	pop	r1
    2c1e:	18 95       	reti

00002c20 <__vector_35>:
    2c20:	1f 92       	push	r1
    2c22:	0f 92       	push	r0
    2c24:	0f b6       	in	r0, 0x3f	; 63
    2c26:	0f 92       	push	r0
    2c28:	11 24       	eor	r1, r1
    2c2a:	0b b6       	in	r0, 0x3b	; 59
    2c2c:	0f 92       	push	r0
    2c2e:	2f 93       	push	r18
    2c30:	3f 93       	push	r19
    2c32:	4f 93       	push	r20
    2c34:	5f 93       	push	r21
    2c36:	6f 93       	push	r22
    2c38:	7f 93       	push	r23
    2c3a:	8f 93       	push	r24
    2c3c:	9f 93       	push	r25
    2c3e:	af 93       	push	r26
    2c40:	bf 93       	push	r27
    2c42:	ef 93       	push	r30
    2c44:	ff 93       	push	r31
    2c46:	e0 91 8b 04 	lds	r30, 0x048B	; 0x80048b <tc_tccr3_ovf_callback>
    2c4a:	f0 91 8c 04 	lds	r31, 0x048C	; 0x80048c <tc_tccr3_ovf_callback+0x1>
    2c4e:	30 97       	sbiw	r30, 0x00	; 0
    2c50:	09 f0       	breq	.+2      	; 0x2c54 <__vector_35+0x34>
    2c52:	19 95       	eicall
    2c54:	ff 91       	pop	r31
    2c56:	ef 91       	pop	r30
    2c58:	bf 91       	pop	r27
    2c5a:	af 91       	pop	r26
    2c5c:	9f 91       	pop	r25
    2c5e:	8f 91       	pop	r24
    2c60:	7f 91       	pop	r23
    2c62:	6f 91       	pop	r22
    2c64:	5f 91       	pop	r21
    2c66:	4f 91       	pop	r20
    2c68:	3f 91       	pop	r19
    2c6a:	2f 91       	pop	r18
    2c6c:	0f 90       	pop	r0
    2c6e:	0b be       	out	0x3b, r0	; 59
    2c70:	0f 90       	pop	r0
    2c72:	0f be       	out	0x3f, r0	; 63
    2c74:	0f 90       	pop	r0
    2c76:	1f 90       	pop	r1
    2c78:	18 95       	reti

00002c7a <__vector_32>:
    2c7a:	1f 92       	push	r1
    2c7c:	0f 92       	push	r0
    2c7e:	0f b6       	in	r0, 0x3f	; 63
    2c80:	0f 92       	push	r0
    2c82:	11 24       	eor	r1, r1
    2c84:	0b b6       	in	r0, 0x3b	; 59
    2c86:	0f 92       	push	r0
    2c88:	2f 93       	push	r18
    2c8a:	3f 93       	push	r19
    2c8c:	4f 93       	push	r20
    2c8e:	5f 93       	push	r21
    2c90:	6f 93       	push	r22
    2c92:	7f 93       	push	r23
    2c94:	8f 93       	push	r24
    2c96:	9f 93       	push	r25
    2c98:	af 93       	push	r26
    2c9a:	bf 93       	push	r27
    2c9c:	ef 93       	push	r30
    2c9e:	ff 93       	push	r31
    2ca0:	e0 91 89 04 	lds	r30, 0x0489	; 0x800489 <tc_tccr3_compa_callback>
    2ca4:	f0 91 8a 04 	lds	r31, 0x048A	; 0x80048a <tc_tccr3_compa_callback+0x1>
    2ca8:	30 97       	sbiw	r30, 0x00	; 0
    2caa:	09 f0       	breq	.+2      	; 0x2cae <__vector_32+0x34>
    2cac:	19 95       	eicall
    2cae:	ff 91       	pop	r31
    2cb0:	ef 91       	pop	r30
    2cb2:	bf 91       	pop	r27
    2cb4:	af 91       	pop	r26
    2cb6:	9f 91       	pop	r25
    2cb8:	8f 91       	pop	r24
    2cba:	7f 91       	pop	r23
    2cbc:	6f 91       	pop	r22
    2cbe:	5f 91       	pop	r21
    2cc0:	4f 91       	pop	r20
    2cc2:	3f 91       	pop	r19
    2cc4:	2f 91       	pop	r18
    2cc6:	0f 90       	pop	r0
    2cc8:	0b be       	out	0x3b, r0	; 59
    2cca:	0f 90       	pop	r0
    2ccc:	0f be       	out	0x3f, r0	; 63
    2cce:	0f 90       	pop	r0
    2cd0:	1f 90       	pop	r1
    2cd2:	18 95       	reti

00002cd4 <__vector_33>:
    2cd4:	1f 92       	push	r1
    2cd6:	0f 92       	push	r0
    2cd8:	0f b6       	in	r0, 0x3f	; 63
    2cda:	0f 92       	push	r0
    2cdc:	11 24       	eor	r1, r1
    2cde:	0b b6       	in	r0, 0x3b	; 59
    2ce0:	0f 92       	push	r0
    2ce2:	2f 93       	push	r18
    2ce4:	3f 93       	push	r19
    2ce6:	4f 93       	push	r20
    2ce8:	5f 93       	push	r21
    2cea:	6f 93       	push	r22
    2cec:	7f 93       	push	r23
    2cee:	8f 93       	push	r24
    2cf0:	9f 93       	push	r25
    2cf2:	af 93       	push	r26
    2cf4:	bf 93       	push	r27
    2cf6:	ef 93       	push	r30
    2cf8:	ff 93       	push	r31
    2cfa:	e0 91 87 04 	lds	r30, 0x0487	; 0x800487 <tc_tccr3_compb_callback>
    2cfe:	f0 91 88 04 	lds	r31, 0x0488	; 0x800488 <tc_tccr3_compb_callback+0x1>
    2d02:	30 97       	sbiw	r30, 0x00	; 0
    2d04:	09 f0       	breq	.+2      	; 0x2d08 <__vector_33+0x34>
    2d06:	19 95       	eicall
    2d08:	ff 91       	pop	r31
    2d0a:	ef 91       	pop	r30
    2d0c:	bf 91       	pop	r27
    2d0e:	af 91       	pop	r26
    2d10:	9f 91       	pop	r25
    2d12:	8f 91       	pop	r24
    2d14:	7f 91       	pop	r23
    2d16:	6f 91       	pop	r22
    2d18:	5f 91       	pop	r21
    2d1a:	4f 91       	pop	r20
    2d1c:	3f 91       	pop	r19
    2d1e:	2f 91       	pop	r18
    2d20:	0f 90       	pop	r0
    2d22:	0b be       	out	0x3b, r0	; 59
    2d24:	0f 90       	pop	r0
    2d26:	0f be       	out	0x3f, r0	; 63
    2d28:	0f 90       	pop	r0
    2d2a:	1f 90       	pop	r1
    2d2c:	18 95       	reti

00002d2e <__vector_34>:
    2d2e:	1f 92       	push	r1
    2d30:	0f 92       	push	r0
    2d32:	0f b6       	in	r0, 0x3f	; 63
    2d34:	0f 92       	push	r0
    2d36:	11 24       	eor	r1, r1
    2d38:	0b b6       	in	r0, 0x3b	; 59
    2d3a:	0f 92       	push	r0
    2d3c:	2f 93       	push	r18
    2d3e:	3f 93       	push	r19
    2d40:	4f 93       	push	r20
    2d42:	5f 93       	push	r21
    2d44:	6f 93       	push	r22
    2d46:	7f 93       	push	r23
    2d48:	8f 93       	push	r24
    2d4a:	9f 93       	push	r25
    2d4c:	af 93       	push	r26
    2d4e:	bf 93       	push	r27
    2d50:	ef 93       	push	r30
    2d52:	ff 93       	push	r31
    2d54:	e0 91 85 04 	lds	r30, 0x0485	; 0x800485 <tc_tccr3_compc_callback>
    2d58:	f0 91 86 04 	lds	r31, 0x0486	; 0x800486 <tc_tccr3_compc_callback+0x1>
    2d5c:	30 97       	sbiw	r30, 0x00	; 0
    2d5e:	09 f0       	breq	.+2      	; 0x2d62 <__vector_34+0x34>
    2d60:	19 95       	eicall
    2d62:	ff 91       	pop	r31
    2d64:	ef 91       	pop	r30
    2d66:	bf 91       	pop	r27
    2d68:	af 91       	pop	r26
    2d6a:	9f 91       	pop	r25
    2d6c:	8f 91       	pop	r24
    2d6e:	7f 91       	pop	r23
    2d70:	6f 91       	pop	r22
    2d72:	5f 91       	pop	r21
    2d74:	4f 91       	pop	r20
    2d76:	3f 91       	pop	r19
    2d78:	2f 91       	pop	r18
    2d7a:	0f 90       	pop	r0
    2d7c:	0b be       	out	0x3b, r0	; 59
    2d7e:	0f 90       	pop	r0
    2d80:	0f be       	out	0x3f, r0	; 63
    2d82:	0f 90       	pop	r0
    2d84:	1f 90       	pop	r1
    2d86:	18 95       	reti

00002d88 <__vector_45>:
    2d88:	1f 92       	push	r1
    2d8a:	0f 92       	push	r0
    2d8c:	0f b6       	in	r0, 0x3f	; 63
    2d8e:	0f 92       	push	r0
    2d90:	11 24       	eor	r1, r1
    2d92:	0b b6       	in	r0, 0x3b	; 59
    2d94:	0f 92       	push	r0
    2d96:	2f 93       	push	r18
    2d98:	3f 93       	push	r19
    2d9a:	4f 93       	push	r20
    2d9c:	5f 93       	push	r21
    2d9e:	6f 93       	push	r22
    2da0:	7f 93       	push	r23
    2da2:	8f 93       	push	r24
    2da4:	9f 93       	push	r25
    2da6:	af 93       	push	r26
    2da8:	bf 93       	push	r27
    2daa:	ef 93       	push	r30
    2dac:	ff 93       	push	r31
    2dae:	e0 91 83 04 	lds	r30, 0x0483	; 0x800483 <tc_tccr4_ovf_callback>
    2db2:	f0 91 84 04 	lds	r31, 0x0484	; 0x800484 <tc_tccr4_ovf_callback+0x1>
    2db6:	30 97       	sbiw	r30, 0x00	; 0
    2db8:	09 f0       	breq	.+2      	; 0x2dbc <__vector_45+0x34>
    2dba:	19 95       	eicall
    2dbc:	ff 91       	pop	r31
    2dbe:	ef 91       	pop	r30
    2dc0:	bf 91       	pop	r27
    2dc2:	af 91       	pop	r26
    2dc4:	9f 91       	pop	r25
    2dc6:	8f 91       	pop	r24
    2dc8:	7f 91       	pop	r23
    2dca:	6f 91       	pop	r22
    2dcc:	5f 91       	pop	r21
    2dce:	4f 91       	pop	r20
    2dd0:	3f 91       	pop	r19
    2dd2:	2f 91       	pop	r18
    2dd4:	0f 90       	pop	r0
    2dd6:	0b be       	out	0x3b, r0	; 59
    2dd8:	0f 90       	pop	r0
    2dda:	0f be       	out	0x3f, r0	; 63
    2ddc:	0f 90       	pop	r0
    2dde:	1f 90       	pop	r1
    2de0:	18 95       	reti

00002de2 <__vector_42>:
    2de2:	1f 92       	push	r1
    2de4:	0f 92       	push	r0
    2de6:	0f b6       	in	r0, 0x3f	; 63
    2de8:	0f 92       	push	r0
    2dea:	11 24       	eor	r1, r1
    2dec:	0b b6       	in	r0, 0x3b	; 59
    2dee:	0f 92       	push	r0
    2df0:	2f 93       	push	r18
    2df2:	3f 93       	push	r19
    2df4:	4f 93       	push	r20
    2df6:	5f 93       	push	r21
    2df8:	6f 93       	push	r22
    2dfa:	7f 93       	push	r23
    2dfc:	8f 93       	push	r24
    2dfe:	9f 93       	push	r25
    2e00:	af 93       	push	r26
    2e02:	bf 93       	push	r27
    2e04:	ef 93       	push	r30
    2e06:	ff 93       	push	r31
    2e08:	e0 91 81 04 	lds	r30, 0x0481	; 0x800481 <tc_tccr4_compa_callback>
    2e0c:	f0 91 82 04 	lds	r31, 0x0482	; 0x800482 <tc_tccr4_compa_callback+0x1>
    2e10:	30 97       	sbiw	r30, 0x00	; 0
    2e12:	09 f0       	breq	.+2      	; 0x2e16 <__vector_42+0x34>
    2e14:	19 95       	eicall
    2e16:	ff 91       	pop	r31
    2e18:	ef 91       	pop	r30
    2e1a:	bf 91       	pop	r27
    2e1c:	af 91       	pop	r26
    2e1e:	9f 91       	pop	r25
    2e20:	8f 91       	pop	r24
    2e22:	7f 91       	pop	r23
    2e24:	6f 91       	pop	r22
    2e26:	5f 91       	pop	r21
    2e28:	4f 91       	pop	r20
    2e2a:	3f 91       	pop	r19
    2e2c:	2f 91       	pop	r18
    2e2e:	0f 90       	pop	r0
    2e30:	0b be       	out	0x3b, r0	; 59
    2e32:	0f 90       	pop	r0
    2e34:	0f be       	out	0x3f, r0	; 63
    2e36:	0f 90       	pop	r0
    2e38:	1f 90       	pop	r1
    2e3a:	18 95       	reti

00002e3c <__vector_43>:
    2e3c:	1f 92       	push	r1
    2e3e:	0f 92       	push	r0
    2e40:	0f b6       	in	r0, 0x3f	; 63
    2e42:	0f 92       	push	r0
    2e44:	11 24       	eor	r1, r1
    2e46:	0b b6       	in	r0, 0x3b	; 59
    2e48:	0f 92       	push	r0
    2e4a:	2f 93       	push	r18
    2e4c:	3f 93       	push	r19
    2e4e:	4f 93       	push	r20
    2e50:	5f 93       	push	r21
    2e52:	6f 93       	push	r22
    2e54:	7f 93       	push	r23
    2e56:	8f 93       	push	r24
    2e58:	9f 93       	push	r25
    2e5a:	af 93       	push	r26
    2e5c:	bf 93       	push	r27
    2e5e:	ef 93       	push	r30
    2e60:	ff 93       	push	r31
    2e62:	e0 91 7f 04 	lds	r30, 0x047F	; 0x80047f <tc_tccr4_compb_callback>
    2e66:	f0 91 80 04 	lds	r31, 0x0480	; 0x800480 <tc_tccr4_compb_callback+0x1>
    2e6a:	30 97       	sbiw	r30, 0x00	; 0
    2e6c:	09 f0       	breq	.+2      	; 0x2e70 <__vector_43+0x34>
    2e6e:	19 95       	eicall
    2e70:	ff 91       	pop	r31
    2e72:	ef 91       	pop	r30
    2e74:	bf 91       	pop	r27
    2e76:	af 91       	pop	r26
    2e78:	9f 91       	pop	r25
    2e7a:	8f 91       	pop	r24
    2e7c:	7f 91       	pop	r23
    2e7e:	6f 91       	pop	r22
    2e80:	5f 91       	pop	r21
    2e82:	4f 91       	pop	r20
    2e84:	3f 91       	pop	r19
    2e86:	2f 91       	pop	r18
    2e88:	0f 90       	pop	r0
    2e8a:	0b be       	out	0x3b, r0	; 59
    2e8c:	0f 90       	pop	r0
    2e8e:	0f be       	out	0x3f, r0	; 63
    2e90:	0f 90       	pop	r0
    2e92:	1f 90       	pop	r1
    2e94:	18 95       	reti

00002e96 <__vector_44>:
    2e96:	1f 92       	push	r1
    2e98:	0f 92       	push	r0
    2e9a:	0f b6       	in	r0, 0x3f	; 63
    2e9c:	0f 92       	push	r0
    2e9e:	11 24       	eor	r1, r1
    2ea0:	0b b6       	in	r0, 0x3b	; 59
    2ea2:	0f 92       	push	r0
    2ea4:	2f 93       	push	r18
    2ea6:	3f 93       	push	r19
    2ea8:	4f 93       	push	r20
    2eaa:	5f 93       	push	r21
    2eac:	6f 93       	push	r22
    2eae:	7f 93       	push	r23
    2eb0:	8f 93       	push	r24
    2eb2:	9f 93       	push	r25
    2eb4:	af 93       	push	r26
    2eb6:	bf 93       	push	r27
    2eb8:	ef 93       	push	r30
    2eba:	ff 93       	push	r31
    2ebc:	e0 91 7d 04 	lds	r30, 0x047D	; 0x80047d <tc_tccr4_compc_callback>
    2ec0:	f0 91 7e 04 	lds	r31, 0x047E	; 0x80047e <tc_tccr4_compc_callback+0x1>
    2ec4:	30 97       	sbiw	r30, 0x00	; 0
    2ec6:	09 f0       	breq	.+2      	; 0x2eca <__vector_44+0x34>
    2ec8:	19 95       	eicall
    2eca:	ff 91       	pop	r31
    2ecc:	ef 91       	pop	r30
    2ece:	bf 91       	pop	r27
    2ed0:	af 91       	pop	r26
    2ed2:	9f 91       	pop	r25
    2ed4:	8f 91       	pop	r24
    2ed6:	7f 91       	pop	r23
    2ed8:	6f 91       	pop	r22
    2eda:	5f 91       	pop	r21
    2edc:	4f 91       	pop	r20
    2ede:	3f 91       	pop	r19
    2ee0:	2f 91       	pop	r18
    2ee2:	0f 90       	pop	r0
    2ee4:	0b be       	out	0x3b, r0	; 59
    2ee6:	0f 90       	pop	r0
    2ee8:	0f be       	out	0x3f, r0	; 63
    2eea:	0f 90       	pop	r0
    2eec:	1f 90       	pop	r1
    2eee:	18 95       	reti

00002ef0 <__vector_50>:
    2ef0:	1f 92       	push	r1
    2ef2:	0f 92       	push	r0
    2ef4:	0f b6       	in	r0, 0x3f	; 63
    2ef6:	0f 92       	push	r0
    2ef8:	11 24       	eor	r1, r1
    2efa:	0b b6       	in	r0, 0x3b	; 59
    2efc:	0f 92       	push	r0
    2efe:	2f 93       	push	r18
    2f00:	3f 93       	push	r19
    2f02:	4f 93       	push	r20
    2f04:	5f 93       	push	r21
    2f06:	6f 93       	push	r22
    2f08:	7f 93       	push	r23
    2f0a:	8f 93       	push	r24
    2f0c:	9f 93       	push	r25
    2f0e:	af 93       	push	r26
    2f10:	bf 93       	push	r27
    2f12:	ef 93       	push	r30
    2f14:	ff 93       	push	r31
    2f16:	e0 91 7b 04 	lds	r30, 0x047B	; 0x80047b <tc_tccr5_ovf_callback>
    2f1a:	f0 91 7c 04 	lds	r31, 0x047C	; 0x80047c <tc_tccr5_ovf_callback+0x1>
    2f1e:	30 97       	sbiw	r30, 0x00	; 0
    2f20:	09 f0       	breq	.+2      	; 0x2f24 <__vector_50+0x34>
    2f22:	19 95       	eicall
    2f24:	ff 91       	pop	r31
    2f26:	ef 91       	pop	r30
    2f28:	bf 91       	pop	r27
    2f2a:	af 91       	pop	r26
    2f2c:	9f 91       	pop	r25
    2f2e:	8f 91       	pop	r24
    2f30:	7f 91       	pop	r23
    2f32:	6f 91       	pop	r22
    2f34:	5f 91       	pop	r21
    2f36:	4f 91       	pop	r20
    2f38:	3f 91       	pop	r19
    2f3a:	2f 91       	pop	r18
    2f3c:	0f 90       	pop	r0
    2f3e:	0b be       	out	0x3b, r0	; 59
    2f40:	0f 90       	pop	r0
    2f42:	0f be       	out	0x3f, r0	; 63
    2f44:	0f 90       	pop	r0
    2f46:	1f 90       	pop	r1
    2f48:	18 95       	reti

00002f4a <__vector_47>:
    2f4a:	1f 92       	push	r1
    2f4c:	0f 92       	push	r0
    2f4e:	0f b6       	in	r0, 0x3f	; 63
    2f50:	0f 92       	push	r0
    2f52:	11 24       	eor	r1, r1
    2f54:	0b b6       	in	r0, 0x3b	; 59
    2f56:	0f 92       	push	r0
    2f58:	2f 93       	push	r18
    2f5a:	3f 93       	push	r19
    2f5c:	4f 93       	push	r20
    2f5e:	5f 93       	push	r21
    2f60:	6f 93       	push	r22
    2f62:	7f 93       	push	r23
    2f64:	8f 93       	push	r24
    2f66:	9f 93       	push	r25
    2f68:	af 93       	push	r26
    2f6a:	bf 93       	push	r27
    2f6c:	ef 93       	push	r30
    2f6e:	ff 93       	push	r31
    2f70:	e0 91 79 04 	lds	r30, 0x0479	; 0x800479 <tc_tccr5_compa_callback>
    2f74:	f0 91 7a 04 	lds	r31, 0x047A	; 0x80047a <tc_tccr5_compa_callback+0x1>
    2f78:	30 97       	sbiw	r30, 0x00	; 0
    2f7a:	09 f0       	breq	.+2      	; 0x2f7e <__vector_47+0x34>
    2f7c:	19 95       	eicall
    2f7e:	ff 91       	pop	r31
    2f80:	ef 91       	pop	r30
    2f82:	bf 91       	pop	r27
    2f84:	af 91       	pop	r26
    2f86:	9f 91       	pop	r25
    2f88:	8f 91       	pop	r24
    2f8a:	7f 91       	pop	r23
    2f8c:	6f 91       	pop	r22
    2f8e:	5f 91       	pop	r21
    2f90:	4f 91       	pop	r20
    2f92:	3f 91       	pop	r19
    2f94:	2f 91       	pop	r18
    2f96:	0f 90       	pop	r0
    2f98:	0b be       	out	0x3b, r0	; 59
    2f9a:	0f 90       	pop	r0
    2f9c:	0f be       	out	0x3f, r0	; 63
    2f9e:	0f 90       	pop	r0
    2fa0:	1f 90       	pop	r1
    2fa2:	18 95       	reti

00002fa4 <__vector_48>:
    2fa4:	1f 92       	push	r1
    2fa6:	0f 92       	push	r0
    2fa8:	0f b6       	in	r0, 0x3f	; 63
    2faa:	0f 92       	push	r0
    2fac:	11 24       	eor	r1, r1
    2fae:	0b b6       	in	r0, 0x3b	; 59
    2fb0:	0f 92       	push	r0
    2fb2:	2f 93       	push	r18
    2fb4:	3f 93       	push	r19
    2fb6:	4f 93       	push	r20
    2fb8:	5f 93       	push	r21
    2fba:	6f 93       	push	r22
    2fbc:	7f 93       	push	r23
    2fbe:	8f 93       	push	r24
    2fc0:	9f 93       	push	r25
    2fc2:	af 93       	push	r26
    2fc4:	bf 93       	push	r27
    2fc6:	ef 93       	push	r30
    2fc8:	ff 93       	push	r31
    2fca:	e0 91 77 04 	lds	r30, 0x0477	; 0x800477 <tc_tccr5_compb_callback>
    2fce:	f0 91 78 04 	lds	r31, 0x0478	; 0x800478 <tc_tccr5_compb_callback+0x1>
    2fd2:	30 97       	sbiw	r30, 0x00	; 0
    2fd4:	09 f0       	breq	.+2      	; 0x2fd8 <__vector_48+0x34>
    2fd6:	19 95       	eicall
    2fd8:	ff 91       	pop	r31
    2fda:	ef 91       	pop	r30
    2fdc:	bf 91       	pop	r27
    2fde:	af 91       	pop	r26
    2fe0:	9f 91       	pop	r25
    2fe2:	8f 91       	pop	r24
    2fe4:	7f 91       	pop	r23
    2fe6:	6f 91       	pop	r22
    2fe8:	5f 91       	pop	r21
    2fea:	4f 91       	pop	r20
    2fec:	3f 91       	pop	r19
    2fee:	2f 91       	pop	r18
    2ff0:	0f 90       	pop	r0
    2ff2:	0b be       	out	0x3b, r0	; 59
    2ff4:	0f 90       	pop	r0
    2ff6:	0f be       	out	0x3f, r0	; 63
    2ff8:	0f 90       	pop	r0
    2ffa:	1f 90       	pop	r1
    2ffc:	18 95       	reti

00002ffe <__vector_49>:
    2ffe:	1f 92       	push	r1
    3000:	0f 92       	push	r0
    3002:	0f b6       	in	r0, 0x3f	; 63
    3004:	0f 92       	push	r0
    3006:	11 24       	eor	r1, r1
    3008:	0b b6       	in	r0, 0x3b	; 59
    300a:	0f 92       	push	r0
    300c:	2f 93       	push	r18
    300e:	3f 93       	push	r19
    3010:	4f 93       	push	r20
    3012:	5f 93       	push	r21
    3014:	6f 93       	push	r22
    3016:	7f 93       	push	r23
    3018:	8f 93       	push	r24
    301a:	9f 93       	push	r25
    301c:	af 93       	push	r26
    301e:	bf 93       	push	r27
    3020:	ef 93       	push	r30
    3022:	ff 93       	push	r31
    3024:	e0 91 75 04 	lds	r30, 0x0475	; 0x800475 <tc_tccr5_compc_callback>
    3028:	f0 91 76 04 	lds	r31, 0x0476	; 0x800476 <tc_tccr5_compc_callback+0x1>
    302c:	30 97       	sbiw	r30, 0x00	; 0
    302e:	09 f0       	breq	.+2      	; 0x3032 <__vector_49+0x34>
    3030:	19 95       	eicall
    3032:	ff 91       	pop	r31
    3034:	ef 91       	pop	r30
    3036:	bf 91       	pop	r27
    3038:	af 91       	pop	r26
    303a:	9f 91       	pop	r25
    303c:	8f 91       	pop	r24
    303e:	7f 91       	pop	r23
    3040:	6f 91       	pop	r22
    3042:	5f 91       	pop	r21
    3044:	4f 91       	pop	r20
    3046:	3f 91       	pop	r19
    3048:	2f 91       	pop	r18
    304a:	0f 90       	pop	r0
    304c:	0b be       	out	0x3b, r0	; 59
    304e:	0f 90       	pop	r0
    3050:	0f be       	out	0x3f, r0	; 63
    3052:	0f 90       	pop	r0
    3054:	1f 90       	pop	r1
    3056:	18 95       	reti

00003058 <tc_enable>:
    3058:	1f 93       	push	r17
    305a:	cf 93       	push	r28
    305c:	df 93       	push	r29
    305e:	1f 92       	push	r1
    3060:	cd b7       	in	r28, 0x3d	; 61
    3062:	de b7       	in	r29, 0x3e	; 62
    3064:	2f b7       	in	r18, 0x3f	; 63
    3066:	29 83       	std	Y+1, r18	; 0x01
    3068:	f8 94       	cli
    306a:	19 81       	ldd	r17, Y+1	; 0x01
    306c:	00 97       	sbiw	r24, 0x00	; 0
    306e:	09 f4       	brne	.+2      	; 0x3072 <tc_enable+0x1a>
    3070:	64 c0       	rjmp	.+200    	; 0x313a <tc_enable+0xe2>
    3072:	88 37       	cpi	r24, 0x78	; 120
    3074:	91 05       	cpc	r25, r1
    3076:	49 f4       	brne	.+18     	; 0x308a <tc_enable+0x32>
    3078:	61 e0       	ldi	r22, 0x01	; 1
    307a:	80 e0       	ldi	r24, 0x00	; 0
    307c:	0e 94 64 06 	call	0xcc8	; 0xcc8 <sysclk_enable_module>
    3080:	60 e1       	ldi	r22, 0x10	; 16
    3082:	80 e0       	ldi	r24, 0x00	; 0
    3084:	0e 94 64 06 	call	0xcc8	; 0xcc8 <sysclk_enable_module>
    3088:	58 c0       	rjmp	.+176    	; 0x313a <tc_enable+0xe2>
    308a:	80 3c       	cpi	r24, 0xC0	; 192
    308c:	91 05       	cpc	r25, r1
    308e:	29 f4       	brne	.+10     	; 0x309a <tc_enable+0x42>
    3090:	62 e0       	ldi	r22, 0x02	; 2
    3092:	80 e0       	ldi	r24, 0x00	; 0
    3094:	0e 94 64 06 	call	0xcc8	; 0xcc8 <sysclk_enable_module>
    3098:	50 c0       	rjmp	.+160    	; 0x313a <tc_enable+0xe2>
    309a:	8c 34       	cpi	r24, 0x4C	; 76
    309c:	91 05       	cpc	r25, r1
    309e:	29 f4       	brne	.+10     	; 0x30aa <tc_enable+0x52>
    30a0:	64 e0       	ldi	r22, 0x04	; 4
    30a2:	80 e0       	ldi	r24, 0x00	; 0
    30a4:	0e 94 64 06 	call	0xcc8	; 0xcc8 <sysclk_enable_module>
    30a8:	48 c0       	rjmp	.+144    	; 0x313a <tc_enable+0xe2>
    30aa:	80 38       	cpi	r24, 0x80	; 128
    30ac:	91 05       	cpc	r25, r1
    30ae:	29 f4       	brne	.+10     	; 0x30ba <tc_enable+0x62>
    30b0:	68 e0       	ldi	r22, 0x08	; 8
    30b2:	80 e0       	ldi	r24, 0x00	; 0
    30b4:	0e 94 64 06 	call	0xcc8	; 0xcc8 <sysclk_enable_module>
    30b8:	40 c0       	rjmp	.+128    	; 0x313a <tc_enable+0xe2>
    30ba:	84 34       	cpi	r24, 0x44	; 68
    30bc:	91 05       	cpc	r25, r1
    30be:	29 f4       	brne	.+10     	; 0x30ca <tc_enable+0x72>
    30c0:	60 e2       	ldi	r22, 0x20	; 32
    30c2:	80 e0       	ldi	r24, 0x00	; 0
    30c4:	0e 94 64 06 	call	0xcc8	; 0xcc8 <sysclk_enable_module>
    30c8:	38 c0       	rjmp	.+112    	; 0x313a <tc_enable+0xe2>
    30ca:	80 3b       	cpi	r24, 0xB0	; 176
    30cc:	91 05       	cpc	r25, r1
    30ce:	29 f4       	brne	.+10     	; 0x30da <tc_enable+0x82>
    30d0:	60 e4       	ldi	r22, 0x40	; 64
    30d2:	80 e0       	ldi	r24, 0x00	; 0
    30d4:	0e 94 64 06 	call	0xcc8	; 0xcc8 <sysclk_enable_module>
    30d8:	30 c0       	rjmp	.+96     	; 0x313a <tc_enable+0xe2>
    30da:	88 3b       	cpi	r24, 0xB8	; 184
    30dc:	91 05       	cpc	r25, r1
    30de:	29 f4       	brne	.+10     	; 0x30ea <tc_enable+0x92>
    30e0:	60 e8       	ldi	r22, 0x80	; 128
    30e2:	80 e0       	ldi	r24, 0x00	; 0
    30e4:	0e 94 64 06 	call	0xcc8	; 0xcc8 <sysclk_enable_module>
    30e8:	28 c0       	rjmp	.+80     	; 0x313a <tc_enable+0xe2>
    30ea:	88 3c       	cpi	r24, 0xC8	; 200
    30ec:	91 05       	cpc	r25, r1
    30ee:	29 f4       	brne	.+10     	; 0x30fa <tc_enable+0xa2>
    30f0:	61 e0       	ldi	r22, 0x01	; 1
    30f2:	81 e0       	ldi	r24, 0x01	; 1
    30f4:	0e 94 64 06 	call	0xcc8	; 0xcc8 <sysclk_enable_module>
    30f8:	20 c0       	rjmp	.+64     	; 0x313a <tc_enable+0xe2>
    30fa:	80 39       	cpi	r24, 0x90	; 144
    30fc:	91 05       	cpc	r25, r1
    30fe:	29 f4       	brne	.+10     	; 0x310a <tc_enable+0xb2>
    3100:	68 e0       	ldi	r22, 0x08	; 8
    3102:	81 e0       	ldi	r24, 0x01	; 1
    3104:	0e 94 64 06 	call	0xcc8	; 0xcc8 <sysclk_enable_module>
    3108:	18 c0       	rjmp	.+48     	; 0x313a <tc_enable+0xe2>
    310a:	80 3a       	cpi	r24, 0xA0	; 160
    310c:	91 05       	cpc	r25, r1
    310e:	29 f4       	brne	.+10     	; 0x311a <tc_enable+0xc2>
    3110:	60 e1       	ldi	r22, 0x10	; 16
    3112:	81 e0       	ldi	r24, 0x01	; 1
    3114:	0e 94 64 06 	call	0xcc8	; 0xcc8 <sysclk_enable_module>
    3118:	10 c0       	rjmp	.+32     	; 0x313a <tc_enable+0xe2>
    311a:	80 32       	cpi	r24, 0x20	; 32
    311c:	21 e0       	ldi	r18, 0x01	; 1
    311e:	92 07       	cpc	r25, r18
    3120:	29 f4       	brne	.+10     	; 0x312c <tc_enable+0xd4>
    3122:	60 e2       	ldi	r22, 0x20	; 32
    3124:	81 e0       	ldi	r24, 0x01	; 1
    3126:	0e 94 64 06 	call	0xcc8	; 0xcc8 <sysclk_enable_module>
    312a:	07 c0       	rjmp	.+14     	; 0x313a <tc_enable+0xe2>
    312c:	83 34       	cpi	r24, 0x43	; 67
    312e:	91 40       	sbci	r25, 0x01	; 1
    3130:	21 f4       	brne	.+8      	; 0x313a <tc_enable+0xe2>
    3132:	60 e4       	ldi	r22, 0x40	; 64
    3134:	81 e0       	ldi	r24, 0x01	; 1
    3136:	0e 94 64 06 	call	0xcc8	; 0xcc8 <sysclk_enable_module>
    313a:	1f bf       	out	0x3f, r17	; 63
    313c:	0f 90       	pop	r0
    313e:	df 91       	pop	r29
    3140:	cf 91       	pop	r28
    3142:	1f 91       	pop	r17
    3144:	08 95       	ret

00003146 <tc_disable>:
    3146:	1f 93       	push	r17
    3148:	cf 93       	push	r28
    314a:	df 93       	push	r29
    314c:	1f 92       	push	r1
    314e:	cd b7       	in	r28, 0x3d	; 61
    3150:	de b7       	in	r29, 0x3e	; 62
    3152:	2f b7       	in	r18, 0x3f	; 63
    3154:	29 83       	std	Y+1, r18	; 0x01
    3156:	f8 94       	cli
    3158:	19 81       	ldd	r17, Y+1	; 0x01
    315a:	00 97       	sbiw	r24, 0x00	; 0
    315c:	09 f4       	brne	.+2      	; 0x3160 <tc_disable+0x1a>
    315e:	64 c0       	rjmp	.+200    	; 0x3228 <tc_disable+0xe2>
    3160:	88 37       	cpi	r24, 0x78	; 120
    3162:	91 05       	cpc	r25, r1
    3164:	49 f4       	brne	.+18     	; 0x3178 <tc_disable+0x32>
    3166:	61 e0       	ldi	r22, 0x01	; 1
    3168:	80 e0       	ldi	r24, 0x00	; 0
    316a:	0e 94 7c 06 	call	0xcf8	; 0xcf8 <sysclk_disable_module>
    316e:	60 e1       	ldi	r22, 0x10	; 16
    3170:	80 e0       	ldi	r24, 0x00	; 0
    3172:	0e 94 7c 06 	call	0xcf8	; 0xcf8 <sysclk_disable_module>
    3176:	58 c0       	rjmp	.+176    	; 0x3228 <tc_disable+0xe2>
    3178:	80 3c       	cpi	r24, 0xC0	; 192
    317a:	91 05       	cpc	r25, r1
    317c:	29 f4       	brne	.+10     	; 0x3188 <tc_disable+0x42>
    317e:	62 e0       	ldi	r22, 0x02	; 2
    3180:	80 e0       	ldi	r24, 0x00	; 0
    3182:	0e 94 7c 06 	call	0xcf8	; 0xcf8 <sysclk_disable_module>
    3186:	50 c0       	rjmp	.+160    	; 0x3228 <tc_disable+0xe2>
    3188:	8c 34       	cpi	r24, 0x4C	; 76
    318a:	91 05       	cpc	r25, r1
    318c:	29 f4       	brne	.+10     	; 0x3198 <tc_disable+0x52>
    318e:	64 e0       	ldi	r22, 0x04	; 4
    3190:	80 e0       	ldi	r24, 0x00	; 0
    3192:	0e 94 7c 06 	call	0xcf8	; 0xcf8 <sysclk_disable_module>
    3196:	48 c0       	rjmp	.+144    	; 0x3228 <tc_disable+0xe2>
    3198:	80 38       	cpi	r24, 0x80	; 128
    319a:	91 05       	cpc	r25, r1
    319c:	29 f4       	brne	.+10     	; 0x31a8 <tc_disable+0x62>
    319e:	68 e0       	ldi	r22, 0x08	; 8
    31a0:	80 e0       	ldi	r24, 0x00	; 0
    31a2:	0e 94 7c 06 	call	0xcf8	; 0xcf8 <sysclk_disable_module>
    31a6:	40 c0       	rjmp	.+128    	; 0x3228 <tc_disable+0xe2>
    31a8:	84 34       	cpi	r24, 0x44	; 68
    31aa:	91 05       	cpc	r25, r1
    31ac:	29 f4       	brne	.+10     	; 0x31b8 <tc_disable+0x72>
    31ae:	60 e2       	ldi	r22, 0x20	; 32
    31b0:	80 e0       	ldi	r24, 0x00	; 0
    31b2:	0e 94 7c 06 	call	0xcf8	; 0xcf8 <sysclk_disable_module>
    31b6:	38 c0       	rjmp	.+112    	; 0x3228 <tc_disable+0xe2>
    31b8:	80 3b       	cpi	r24, 0xB0	; 176
    31ba:	91 05       	cpc	r25, r1
    31bc:	29 f4       	brne	.+10     	; 0x31c8 <tc_disable+0x82>
    31be:	60 e4       	ldi	r22, 0x40	; 64
    31c0:	80 e0       	ldi	r24, 0x00	; 0
    31c2:	0e 94 7c 06 	call	0xcf8	; 0xcf8 <sysclk_disable_module>
    31c6:	30 c0       	rjmp	.+96     	; 0x3228 <tc_disable+0xe2>
    31c8:	88 3b       	cpi	r24, 0xB8	; 184
    31ca:	91 05       	cpc	r25, r1
    31cc:	29 f4       	brne	.+10     	; 0x31d8 <tc_disable+0x92>
    31ce:	60 e8       	ldi	r22, 0x80	; 128
    31d0:	80 e0       	ldi	r24, 0x00	; 0
    31d2:	0e 94 7c 06 	call	0xcf8	; 0xcf8 <sysclk_disable_module>
    31d6:	28 c0       	rjmp	.+80     	; 0x3228 <tc_disable+0xe2>
    31d8:	88 3c       	cpi	r24, 0xC8	; 200
    31da:	91 05       	cpc	r25, r1
    31dc:	29 f4       	brne	.+10     	; 0x31e8 <tc_disable+0xa2>
    31de:	61 e0       	ldi	r22, 0x01	; 1
    31e0:	81 e0       	ldi	r24, 0x01	; 1
    31e2:	0e 94 7c 06 	call	0xcf8	; 0xcf8 <sysclk_disable_module>
    31e6:	20 c0       	rjmp	.+64     	; 0x3228 <tc_disable+0xe2>
    31e8:	80 39       	cpi	r24, 0x90	; 144
    31ea:	91 05       	cpc	r25, r1
    31ec:	29 f4       	brne	.+10     	; 0x31f8 <tc_disable+0xb2>
    31ee:	68 e0       	ldi	r22, 0x08	; 8
    31f0:	81 e0       	ldi	r24, 0x01	; 1
    31f2:	0e 94 7c 06 	call	0xcf8	; 0xcf8 <sysclk_disable_module>
    31f6:	18 c0       	rjmp	.+48     	; 0x3228 <tc_disable+0xe2>
    31f8:	80 3a       	cpi	r24, 0xA0	; 160
    31fa:	91 05       	cpc	r25, r1
    31fc:	29 f4       	brne	.+10     	; 0x3208 <tc_disable+0xc2>
    31fe:	60 e1       	ldi	r22, 0x10	; 16
    3200:	81 e0       	ldi	r24, 0x01	; 1
    3202:	0e 94 7c 06 	call	0xcf8	; 0xcf8 <sysclk_disable_module>
    3206:	10 c0       	rjmp	.+32     	; 0x3228 <tc_disable+0xe2>
    3208:	80 32       	cpi	r24, 0x20	; 32
    320a:	21 e0       	ldi	r18, 0x01	; 1
    320c:	92 07       	cpc	r25, r18
    320e:	29 f4       	brne	.+10     	; 0x321a <tc_disable+0xd4>
    3210:	60 e2       	ldi	r22, 0x20	; 32
    3212:	81 e0       	ldi	r24, 0x01	; 1
    3214:	0e 94 7c 06 	call	0xcf8	; 0xcf8 <sysclk_disable_module>
    3218:	07 c0       	rjmp	.+14     	; 0x3228 <tc_disable+0xe2>
    321a:	83 34       	cpi	r24, 0x43	; 67
    321c:	91 40       	sbci	r25, 0x01	; 1
    321e:	21 f4       	brne	.+8      	; 0x3228 <tc_disable+0xe2>
    3220:	60 e4       	ldi	r22, 0x40	; 64
    3222:	81 e0       	ldi	r24, 0x01	; 1
    3224:	0e 94 7c 06 	call	0xcf8	; 0xcf8 <sysclk_disable_module>
    3228:	1f bf       	out	0x3f, r17	; 63
    322a:	0f 90       	pop	r0
    322c:	df 91       	pop	r29
    322e:	cf 91       	pop	r28
    3230:	1f 91       	pop	r17
    3232:	08 95       	ret

00003234 <tc_set_overflow_interrupt_callback>:
    3234:	80 38       	cpi	r24, 0x80	; 128
    3236:	91 05       	cpc	r25, r1
    3238:	29 f4       	brne	.+10     	; 0x3244 <tc_set_overflow_interrupt_callback+0x10>
    323a:	70 93 94 04 	sts	0x0494, r23	; 0x800494 <tc_tccr1_ovf_callback+0x1>
    323e:	60 93 93 04 	sts	0x0493, r22	; 0x800493 <tc_tccr1_ovf_callback>
    3242:	08 95       	ret
    3244:	80 39       	cpi	r24, 0x90	; 144
    3246:	91 05       	cpc	r25, r1
    3248:	29 f4       	brne	.+10     	; 0x3254 <tc_set_overflow_interrupt_callback+0x20>
    324a:	70 93 8c 04 	sts	0x048C, r23	; 0x80048c <tc_tccr3_ovf_callback+0x1>
    324e:	60 93 8b 04 	sts	0x048B, r22	; 0x80048b <tc_tccr3_ovf_callback>
    3252:	08 95       	ret
    3254:	80 3a       	cpi	r24, 0xA0	; 160
    3256:	91 05       	cpc	r25, r1
    3258:	29 f4       	brne	.+10     	; 0x3264 <tc_set_overflow_interrupt_callback+0x30>
    325a:	70 93 84 04 	sts	0x0484, r23	; 0x800484 <tc_tccr4_ovf_callback+0x1>
    325e:	60 93 83 04 	sts	0x0483, r22	; 0x800483 <tc_tccr4_ovf_callback>
    3262:	08 95       	ret
    3264:	80 32       	cpi	r24, 0x20	; 32
    3266:	91 40       	sbci	r25, 0x01	; 1
    3268:	21 f4       	brne	.+8      	; 0x3272 <tc_set_overflow_interrupt_callback+0x3e>
    326a:	70 93 7c 04 	sts	0x047C, r23	; 0x80047c <tc_tccr5_ovf_callback+0x1>
    326e:	60 93 7b 04 	sts	0x047B, r22	; 0x80047b <tc_tccr5_ovf_callback>
    3272:	08 95       	ret

00003274 <tc_set_compa_interrupt_callback>:
    3274:	80 38       	cpi	r24, 0x80	; 128
    3276:	91 05       	cpc	r25, r1
    3278:	29 f4       	brne	.+10     	; 0x3284 <tc_set_compa_interrupt_callback+0x10>
    327a:	70 93 92 04 	sts	0x0492, r23	; 0x800492 <tc_tccr1_compa_callback+0x1>
    327e:	60 93 91 04 	sts	0x0491, r22	; 0x800491 <tc_tccr1_compa_callback>
    3282:	08 95       	ret
    3284:	80 39       	cpi	r24, 0x90	; 144
    3286:	91 05       	cpc	r25, r1
    3288:	29 f4       	brne	.+10     	; 0x3294 <tc_set_compa_interrupt_callback+0x20>
    328a:	70 93 8a 04 	sts	0x048A, r23	; 0x80048a <tc_tccr3_compa_callback+0x1>
    328e:	60 93 89 04 	sts	0x0489, r22	; 0x800489 <tc_tccr3_compa_callback>
    3292:	08 95       	ret
    3294:	80 3a       	cpi	r24, 0xA0	; 160
    3296:	91 05       	cpc	r25, r1
    3298:	29 f4       	brne	.+10     	; 0x32a4 <tc_set_compa_interrupt_callback+0x30>
    329a:	70 93 82 04 	sts	0x0482, r23	; 0x800482 <tc_tccr4_compa_callback+0x1>
    329e:	60 93 81 04 	sts	0x0481, r22	; 0x800481 <tc_tccr4_compa_callback>
    32a2:	08 95       	ret
    32a4:	80 32       	cpi	r24, 0x20	; 32
    32a6:	91 40       	sbci	r25, 0x01	; 1
    32a8:	21 f4       	brne	.+8      	; 0x32b2 <tc_set_compa_interrupt_callback+0x3e>
    32aa:	70 93 7a 04 	sts	0x047A, r23	; 0x80047a <tc_tccr5_compa_callback+0x1>
    32ae:	60 93 79 04 	sts	0x0479, r22	; 0x800479 <tc_tccr5_compa_callback>
    32b2:	08 95       	ret

000032b4 <main>:
    32b4:	0e 94 00 06 	call	0xc00	; 0xc00 <wireless_init>
    32b8:	0e 94 48 06 	call	0xc90	; 0xc90 <modules_init>
    32bc:	0e 94 aa 0a 	call	0x1554	; 0x1554 <pal_task>
    32c0:	0e 94 07 0d 	call	0x1a0e	; 0x1a0e <tal_task>
    32c4:	0e 94 e1 03 	call	0x7c2	; 0x7c2 <usr_wireless_app_task>
    32c8:	f9 cf       	rjmp	.-14     	; 0x32bc <main+0x8>

000032ca <tal_tx_frame_done_cb>:
    32ca:	0c 94 13 03 	jmp	0x626	; 0x626 <usr_frame_transmitted_cb>
    32ce:	08 95       	ret

000032d0 <tal_rx_frame_cb>:
    32d0:	cf 93       	push	r28
    32d2:	df 93       	push	r29
    32d4:	ec 01       	movw	r28, r24
    32d6:	0e 94 39 02 	call	0x472	; 0x472 <usr_frame_received_cb>
    32da:	89 81       	ldd	r24, Y+1	; 0x01
    32dc:	9a 81       	ldd	r25, Y+2	; 0x02
    32de:	0e 94 d6 0a 	call	0x15ac	; 0x15ac <bmm_buffer_free>
    32e2:	df 91       	pop	r29
    32e4:	cf 91       	pop	r28
    32e6:	08 95       	ret

000032e8 <__subsf3>:
    32e8:	50 58       	subi	r21, 0x80	; 128

000032ea <__addsf3>:
    32ea:	bb 27       	eor	r27, r27
    32ec:	aa 27       	eor	r26, r26
    32ee:	0e d0       	rcall	.+28     	; 0x330c <__addsf3x>
    32f0:	e5 c0       	rjmp	.+458    	; 0x34bc <__fp_round>
    32f2:	d6 d0       	rcall	.+428    	; 0x34a0 <__fp_pscA>
    32f4:	30 f0       	brcs	.+12     	; 0x3302 <__addsf3+0x18>
    32f6:	db d0       	rcall	.+438    	; 0x34ae <__fp_pscB>
    32f8:	20 f0       	brcs	.+8      	; 0x3302 <__addsf3+0x18>
    32fa:	31 f4       	brne	.+12     	; 0x3308 <__addsf3+0x1e>
    32fc:	9f 3f       	cpi	r25, 0xFF	; 255
    32fe:	11 f4       	brne	.+4      	; 0x3304 <__addsf3+0x1a>
    3300:	1e f4       	brtc	.+6      	; 0x3308 <__addsf3+0x1e>
    3302:	cb c0       	rjmp	.+406    	; 0x349a <__fp_nan>
    3304:	0e f4       	brtc	.+2      	; 0x3308 <__addsf3+0x1e>
    3306:	e0 95       	com	r30
    3308:	e7 fb       	bst	r30, 7
    330a:	c1 c0       	rjmp	.+386    	; 0x348e <__fp_inf>

0000330c <__addsf3x>:
    330c:	e9 2f       	mov	r30, r25
    330e:	e7 d0       	rcall	.+462    	; 0x34de <__fp_split3>
    3310:	80 f3       	brcs	.-32     	; 0x32f2 <__addsf3+0x8>
    3312:	ba 17       	cp	r27, r26
    3314:	62 07       	cpc	r22, r18
    3316:	73 07       	cpc	r23, r19
    3318:	84 07       	cpc	r24, r20
    331a:	95 07       	cpc	r25, r21
    331c:	18 f0       	brcs	.+6      	; 0x3324 <__addsf3x+0x18>
    331e:	71 f4       	brne	.+28     	; 0x333c <__addsf3x+0x30>
    3320:	9e f5       	brtc	.+102    	; 0x3388 <__addsf3x+0x7c>
    3322:	ff c0       	rjmp	.+510    	; 0x3522 <__fp_zero>
    3324:	0e f4       	brtc	.+2      	; 0x3328 <__addsf3x+0x1c>
    3326:	e0 95       	com	r30
    3328:	0b 2e       	mov	r0, r27
    332a:	ba 2f       	mov	r27, r26
    332c:	a0 2d       	mov	r26, r0
    332e:	0b 01       	movw	r0, r22
    3330:	b9 01       	movw	r22, r18
    3332:	90 01       	movw	r18, r0
    3334:	0c 01       	movw	r0, r24
    3336:	ca 01       	movw	r24, r20
    3338:	a0 01       	movw	r20, r0
    333a:	11 24       	eor	r1, r1
    333c:	ff 27       	eor	r31, r31
    333e:	59 1b       	sub	r21, r25
    3340:	99 f0       	breq	.+38     	; 0x3368 <__addsf3x+0x5c>
    3342:	59 3f       	cpi	r21, 0xF9	; 249
    3344:	50 f4       	brcc	.+20     	; 0x335a <__addsf3x+0x4e>
    3346:	50 3e       	cpi	r21, 0xE0	; 224
    3348:	68 f1       	brcs	.+90     	; 0x33a4 <__addsf3x+0x98>
    334a:	1a 16       	cp	r1, r26
    334c:	f0 40       	sbci	r31, 0x00	; 0
    334e:	a2 2f       	mov	r26, r18
    3350:	23 2f       	mov	r18, r19
    3352:	34 2f       	mov	r19, r20
    3354:	44 27       	eor	r20, r20
    3356:	58 5f       	subi	r21, 0xF8	; 248
    3358:	f3 cf       	rjmp	.-26     	; 0x3340 <__addsf3x+0x34>
    335a:	46 95       	lsr	r20
    335c:	37 95       	ror	r19
    335e:	27 95       	ror	r18
    3360:	a7 95       	ror	r26
    3362:	f0 40       	sbci	r31, 0x00	; 0
    3364:	53 95       	inc	r21
    3366:	c9 f7       	brne	.-14     	; 0x335a <__addsf3x+0x4e>
    3368:	7e f4       	brtc	.+30     	; 0x3388 <__addsf3x+0x7c>
    336a:	1f 16       	cp	r1, r31
    336c:	ba 0b       	sbc	r27, r26
    336e:	62 0b       	sbc	r22, r18
    3370:	73 0b       	sbc	r23, r19
    3372:	84 0b       	sbc	r24, r20
    3374:	ba f0       	brmi	.+46     	; 0x33a4 <__addsf3x+0x98>
    3376:	91 50       	subi	r25, 0x01	; 1
    3378:	a1 f0       	breq	.+40     	; 0x33a2 <__addsf3x+0x96>
    337a:	ff 0f       	add	r31, r31
    337c:	bb 1f       	adc	r27, r27
    337e:	66 1f       	adc	r22, r22
    3380:	77 1f       	adc	r23, r23
    3382:	88 1f       	adc	r24, r24
    3384:	c2 f7       	brpl	.-16     	; 0x3376 <__addsf3x+0x6a>
    3386:	0e c0       	rjmp	.+28     	; 0x33a4 <__addsf3x+0x98>
    3388:	ba 0f       	add	r27, r26
    338a:	62 1f       	adc	r22, r18
    338c:	73 1f       	adc	r23, r19
    338e:	84 1f       	adc	r24, r20
    3390:	48 f4       	brcc	.+18     	; 0x33a4 <__addsf3x+0x98>
    3392:	87 95       	ror	r24
    3394:	77 95       	ror	r23
    3396:	67 95       	ror	r22
    3398:	b7 95       	ror	r27
    339a:	f7 95       	ror	r31
    339c:	9e 3f       	cpi	r25, 0xFE	; 254
    339e:	08 f0       	brcs	.+2      	; 0x33a2 <__addsf3x+0x96>
    33a0:	b3 cf       	rjmp	.-154    	; 0x3308 <__addsf3+0x1e>
    33a2:	93 95       	inc	r25
    33a4:	88 0f       	add	r24, r24
    33a6:	08 f0       	brcs	.+2      	; 0x33aa <__addsf3x+0x9e>
    33a8:	99 27       	eor	r25, r25
    33aa:	ee 0f       	add	r30, r30
    33ac:	97 95       	ror	r25
    33ae:	87 95       	ror	r24
    33b0:	08 95       	ret

000033b2 <__fixsfsi>:
    33b2:	04 d0       	rcall	.+8      	; 0x33bc <__fixunssfsi>
    33b4:	68 94       	set
    33b6:	b1 11       	cpse	r27, r1
    33b8:	b5 c0       	rjmp	.+362    	; 0x3524 <__fp_szero>
    33ba:	08 95       	ret

000033bc <__fixunssfsi>:
    33bc:	98 d0       	rcall	.+304    	; 0x34ee <__fp_splitA>
    33be:	88 f0       	brcs	.+34     	; 0x33e2 <__fixunssfsi+0x26>
    33c0:	9f 57       	subi	r25, 0x7F	; 127
    33c2:	90 f0       	brcs	.+36     	; 0x33e8 <__fixunssfsi+0x2c>
    33c4:	b9 2f       	mov	r27, r25
    33c6:	99 27       	eor	r25, r25
    33c8:	b7 51       	subi	r27, 0x17	; 23
    33ca:	a0 f0       	brcs	.+40     	; 0x33f4 <__fixunssfsi+0x38>
    33cc:	d1 f0       	breq	.+52     	; 0x3402 <__fixunssfsi+0x46>
    33ce:	66 0f       	add	r22, r22
    33d0:	77 1f       	adc	r23, r23
    33d2:	88 1f       	adc	r24, r24
    33d4:	99 1f       	adc	r25, r25
    33d6:	1a f0       	brmi	.+6      	; 0x33de <__fixunssfsi+0x22>
    33d8:	ba 95       	dec	r27
    33da:	c9 f7       	brne	.-14     	; 0x33ce <__fixunssfsi+0x12>
    33dc:	12 c0       	rjmp	.+36     	; 0x3402 <__fixunssfsi+0x46>
    33de:	b1 30       	cpi	r27, 0x01	; 1
    33e0:	81 f0       	breq	.+32     	; 0x3402 <__fixunssfsi+0x46>
    33e2:	9f d0       	rcall	.+318    	; 0x3522 <__fp_zero>
    33e4:	b1 e0       	ldi	r27, 0x01	; 1
    33e6:	08 95       	ret
    33e8:	9c c0       	rjmp	.+312    	; 0x3522 <__fp_zero>
    33ea:	67 2f       	mov	r22, r23
    33ec:	78 2f       	mov	r23, r24
    33ee:	88 27       	eor	r24, r24
    33f0:	b8 5f       	subi	r27, 0xF8	; 248
    33f2:	39 f0       	breq	.+14     	; 0x3402 <__fixunssfsi+0x46>
    33f4:	b9 3f       	cpi	r27, 0xF9	; 249
    33f6:	cc f3       	brlt	.-14     	; 0x33ea <__fixunssfsi+0x2e>
    33f8:	86 95       	lsr	r24
    33fa:	77 95       	ror	r23
    33fc:	67 95       	ror	r22
    33fe:	b3 95       	inc	r27
    3400:	d9 f7       	brne	.-10     	; 0x33f8 <__fixunssfsi+0x3c>
    3402:	3e f4       	brtc	.+14     	; 0x3412 <__fixunssfsi+0x56>
    3404:	90 95       	com	r25
    3406:	80 95       	com	r24
    3408:	70 95       	com	r23
    340a:	61 95       	neg	r22
    340c:	7f 4f       	sbci	r23, 0xFF	; 255
    340e:	8f 4f       	sbci	r24, 0xFF	; 255
    3410:	9f 4f       	sbci	r25, 0xFF	; 255
    3412:	08 95       	ret

00003414 <__floatunsisf>:
    3414:	e8 94       	clt
    3416:	09 c0       	rjmp	.+18     	; 0x342a <__floatsisf+0x12>

00003418 <__floatsisf>:
    3418:	97 fb       	bst	r25, 7
    341a:	3e f4       	brtc	.+14     	; 0x342a <__floatsisf+0x12>
    341c:	90 95       	com	r25
    341e:	80 95       	com	r24
    3420:	70 95       	com	r23
    3422:	61 95       	neg	r22
    3424:	7f 4f       	sbci	r23, 0xFF	; 255
    3426:	8f 4f       	sbci	r24, 0xFF	; 255
    3428:	9f 4f       	sbci	r25, 0xFF	; 255
    342a:	99 23       	and	r25, r25
    342c:	a9 f0       	breq	.+42     	; 0x3458 <__floatsisf+0x40>
    342e:	f9 2f       	mov	r31, r25
    3430:	96 e9       	ldi	r25, 0x96	; 150
    3432:	bb 27       	eor	r27, r27
    3434:	93 95       	inc	r25
    3436:	f6 95       	lsr	r31
    3438:	87 95       	ror	r24
    343a:	77 95       	ror	r23
    343c:	67 95       	ror	r22
    343e:	b7 95       	ror	r27
    3440:	f1 11       	cpse	r31, r1
    3442:	f8 cf       	rjmp	.-16     	; 0x3434 <__floatsisf+0x1c>
    3444:	fa f4       	brpl	.+62     	; 0x3484 <__floatsisf+0x6c>
    3446:	bb 0f       	add	r27, r27
    3448:	11 f4       	brne	.+4      	; 0x344e <__floatsisf+0x36>
    344a:	60 ff       	sbrs	r22, 0
    344c:	1b c0       	rjmp	.+54     	; 0x3484 <__floatsisf+0x6c>
    344e:	6f 5f       	subi	r22, 0xFF	; 255
    3450:	7f 4f       	sbci	r23, 0xFF	; 255
    3452:	8f 4f       	sbci	r24, 0xFF	; 255
    3454:	9f 4f       	sbci	r25, 0xFF	; 255
    3456:	16 c0       	rjmp	.+44     	; 0x3484 <__floatsisf+0x6c>
    3458:	88 23       	and	r24, r24
    345a:	11 f0       	breq	.+4      	; 0x3460 <__floatsisf+0x48>
    345c:	96 e9       	ldi	r25, 0x96	; 150
    345e:	11 c0       	rjmp	.+34     	; 0x3482 <__floatsisf+0x6a>
    3460:	77 23       	and	r23, r23
    3462:	21 f0       	breq	.+8      	; 0x346c <__floatsisf+0x54>
    3464:	9e e8       	ldi	r25, 0x8E	; 142
    3466:	87 2f       	mov	r24, r23
    3468:	76 2f       	mov	r23, r22
    346a:	05 c0       	rjmp	.+10     	; 0x3476 <__floatsisf+0x5e>
    346c:	66 23       	and	r22, r22
    346e:	71 f0       	breq	.+28     	; 0x348c <__floatsisf+0x74>
    3470:	96 e8       	ldi	r25, 0x86	; 134
    3472:	86 2f       	mov	r24, r22
    3474:	70 e0       	ldi	r23, 0x00	; 0
    3476:	60 e0       	ldi	r22, 0x00	; 0
    3478:	2a f0       	brmi	.+10     	; 0x3484 <__floatsisf+0x6c>
    347a:	9a 95       	dec	r25
    347c:	66 0f       	add	r22, r22
    347e:	77 1f       	adc	r23, r23
    3480:	88 1f       	adc	r24, r24
    3482:	da f7       	brpl	.-10     	; 0x347a <__floatsisf+0x62>
    3484:	88 0f       	add	r24, r24
    3486:	96 95       	lsr	r25
    3488:	87 95       	ror	r24
    348a:	97 f9       	bld	r25, 7
    348c:	08 95       	ret

0000348e <__fp_inf>:
    348e:	97 f9       	bld	r25, 7
    3490:	9f 67       	ori	r25, 0x7F	; 127
    3492:	80 e8       	ldi	r24, 0x80	; 128
    3494:	70 e0       	ldi	r23, 0x00	; 0
    3496:	60 e0       	ldi	r22, 0x00	; 0
    3498:	08 95       	ret

0000349a <__fp_nan>:
    349a:	9f ef       	ldi	r25, 0xFF	; 255
    349c:	80 ec       	ldi	r24, 0xC0	; 192
    349e:	08 95       	ret

000034a0 <__fp_pscA>:
    34a0:	00 24       	eor	r0, r0
    34a2:	0a 94       	dec	r0
    34a4:	16 16       	cp	r1, r22
    34a6:	17 06       	cpc	r1, r23
    34a8:	18 06       	cpc	r1, r24
    34aa:	09 06       	cpc	r0, r25
    34ac:	08 95       	ret

000034ae <__fp_pscB>:
    34ae:	00 24       	eor	r0, r0
    34b0:	0a 94       	dec	r0
    34b2:	12 16       	cp	r1, r18
    34b4:	13 06       	cpc	r1, r19
    34b6:	14 06       	cpc	r1, r20
    34b8:	05 06       	cpc	r0, r21
    34ba:	08 95       	ret

000034bc <__fp_round>:
    34bc:	09 2e       	mov	r0, r25
    34be:	03 94       	inc	r0
    34c0:	00 0c       	add	r0, r0
    34c2:	11 f4       	brne	.+4      	; 0x34c8 <__fp_round+0xc>
    34c4:	88 23       	and	r24, r24
    34c6:	52 f0       	brmi	.+20     	; 0x34dc <__fp_round+0x20>
    34c8:	bb 0f       	add	r27, r27
    34ca:	40 f4       	brcc	.+16     	; 0x34dc <__fp_round+0x20>
    34cc:	bf 2b       	or	r27, r31
    34ce:	11 f4       	brne	.+4      	; 0x34d4 <__fp_round+0x18>
    34d0:	60 ff       	sbrs	r22, 0
    34d2:	04 c0       	rjmp	.+8      	; 0x34dc <__fp_round+0x20>
    34d4:	6f 5f       	subi	r22, 0xFF	; 255
    34d6:	7f 4f       	sbci	r23, 0xFF	; 255
    34d8:	8f 4f       	sbci	r24, 0xFF	; 255
    34da:	9f 4f       	sbci	r25, 0xFF	; 255
    34dc:	08 95       	ret

000034de <__fp_split3>:
    34de:	57 fd       	sbrc	r21, 7
    34e0:	90 58       	subi	r25, 0x80	; 128
    34e2:	44 0f       	add	r20, r20
    34e4:	55 1f       	adc	r21, r21
    34e6:	59 f0       	breq	.+22     	; 0x34fe <__fp_splitA+0x10>
    34e8:	5f 3f       	cpi	r21, 0xFF	; 255
    34ea:	71 f0       	breq	.+28     	; 0x3508 <__fp_splitA+0x1a>
    34ec:	47 95       	ror	r20

000034ee <__fp_splitA>:
    34ee:	88 0f       	add	r24, r24
    34f0:	97 fb       	bst	r25, 7
    34f2:	99 1f       	adc	r25, r25
    34f4:	61 f0       	breq	.+24     	; 0x350e <__fp_splitA+0x20>
    34f6:	9f 3f       	cpi	r25, 0xFF	; 255
    34f8:	79 f0       	breq	.+30     	; 0x3518 <__fp_splitA+0x2a>
    34fa:	87 95       	ror	r24
    34fc:	08 95       	ret
    34fe:	12 16       	cp	r1, r18
    3500:	13 06       	cpc	r1, r19
    3502:	14 06       	cpc	r1, r20
    3504:	55 1f       	adc	r21, r21
    3506:	f2 cf       	rjmp	.-28     	; 0x34ec <__fp_split3+0xe>
    3508:	46 95       	lsr	r20
    350a:	f1 df       	rcall	.-30     	; 0x34ee <__fp_splitA>
    350c:	08 c0       	rjmp	.+16     	; 0x351e <__fp_splitA+0x30>
    350e:	16 16       	cp	r1, r22
    3510:	17 06       	cpc	r1, r23
    3512:	18 06       	cpc	r1, r24
    3514:	99 1f       	adc	r25, r25
    3516:	f1 cf       	rjmp	.-30     	; 0x34fa <__fp_splitA+0xc>
    3518:	86 95       	lsr	r24
    351a:	71 05       	cpc	r23, r1
    351c:	61 05       	cpc	r22, r1
    351e:	08 94       	sec
    3520:	08 95       	ret

00003522 <__fp_zero>:
    3522:	e8 94       	clt

00003524 <__fp_szero>:
    3524:	bb 27       	eor	r27, r27
    3526:	66 27       	eor	r22, r22
    3528:	77 27       	eor	r23, r23
    352a:	cb 01       	movw	r24, r22
    352c:	97 f9       	bld	r25, 7
    352e:	08 95       	ret

00003530 <__mulsf3>:
    3530:	0b d0       	rcall	.+22     	; 0x3548 <__mulsf3x>
    3532:	c4 cf       	rjmp	.-120    	; 0x34bc <__fp_round>
    3534:	b5 df       	rcall	.-150    	; 0x34a0 <__fp_pscA>
    3536:	28 f0       	brcs	.+10     	; 0x3542 <__mulsf3+0x12>
    3538:	ba df       	rcall	.-140    	; 0x34ae <__fp_pscB>
    353a:	18 f0       	brcs	.+6      	; 0x3542 <__mulsf3+0x12>
    353c:	95 23       	and	r25, r21
    353e:	09 f0       	breq	.+2      	; 0x3542 <__mulsf3+0x12>
    3540:	a6 cf       	rjmp	.-180    	; 0x348e <__fp_inf>
    3542:	ab cf       	rjmp	.-170    	; 0x349a <__fp_nan>
    3544:	11 24       	eor	r1, r1
    3546:	ee cf       	rjmp	.-36     	; 0x3524 <__fp_szero>

00003548 <__mulsf3x>:
    3548:	ca df       	rcall	.-108    	; 0x34de <__fp_split3>
    354a:	a0 f3       	brcs	.-24     	; 0x3534 <__mulsf3+0x4>

0000354c <__mulsf3_pse>:
    354c:	95 9f       	mul	r25, r21
    354e:	d1 f3       	breq	.-12     	; 0x3544 <__mulsf3+0x14>
    3550:	95 0f       	add	r25, r21
    3552:	50 e0       	ldi	r21, 0x00	; 0
    3554:	55 1f       	adc	r21, r21
    3556:	62 9f       	mul	r22, r18
    3558:	f0 01       	movw	r30, r0
    355a:	72 9f       	mul	r23, r18
    355c:	bb 27       	eor	r27, r27
    355e:	f0 0d       	add	r31, r0
    3560:	b1 1d       	adc	r27, r1
    3562:	63 9f       	mul	r22, r19
    3564:	aa 27       	eor	r26, r26
    3566:	f0 0d       	add	r31, r0
    3568:	b1 1d       	adc	r27, r1
    356a:	aa 1f       	adc	r26, r26
    356c:	64 9f       	mul	r22, r20
    356e:	66 27       	eor	r22, r22
    3570:	b0 0d       	add	r27, r0
    3572:	a1 1d       	adc	r26, r1
    3574:	66 1f       	adc	r22, r22
    3576:	82 9f       	mul	r24, r18
    3578:	22 27       	eor	r18, r18
    357a:	b0 0d       	add	r27, r0
    357c:	a1 1d       	adc	r26, r1
    357e:	62 1f       	adc	r22, r18
    3580:	73 9f       	mul	r23, r19
    3582:	b0 0d       	add	r27, r0
    3584:	a1 1d       	adc	r26, r1
    3586:	62 1f       	adc	r22, r18
    3588:	83 9f       	mul	r24, r19
    358a:	a0 0d       	add	r26, r0
    358c:	61 1d       	adc	r22, r1
    358e:	22 1f       	adc	r18, r18
    3590:	74 9f       	mul	r23, r20
    3592:	33 27       	eor	r19, r19
    3594:	a0 0d       	add	r26, r0
    3596:	61 1d       	adc	r22, r1
    3598:	23 1f       	adc	r18, r19
    359a:	84 9f       	mul	r24, r20
    359c:	60 0d       	add	r22, r0
    359e:	21 1d       	adc	r18, r1
    35a0:	82 2f       	mov	r24, r18
    35a2:	76 2f       	mov	r23, r22
    35a4:	6a 2f       	mov	r22, r26
    35a6:	11 24       	eor	r1, r1
    35a8:	9f 57       	subi	r25, 0x7F	; 127
    35aa:	50 40       	sbci	r21, 0x00	; 0
    35ac:	8a f0       	brmi	.+34     	; 0x35d0 <__mulsf3_pse+0x84>
    35ae:	e1 f0       	breq	.+56     	; 0x35e8 <__mulsf3_pse+0x9c>
    35b0:	88 23       	and	r24, r24
    35b2:	4a f0       	brmi	.+18     	; 0x35c6 <__mulsf3_pse+0x7a>
    35b4:	ee 0f       	add	r30, r30
    35b6:	ff 1f       	adc	r31, r31
    35b8:	bb 1f       	adc	r27, r27
    35ba:	66 1f       	adc	r22, r22
    35bc:	77 1f       	adc	r23, r23
    35be:	88 1f       	adc	r24, r24
    35c0:	91 50       	subi	r25, 0x01	; 1
    35c2:	50 40       	sbci	r21, 0x00	; 0
    35c4:	a9 f7       	brne	.-22     	; 0x35b0 <__mulsf3_pse+0x64>
    35c6:	9e 3f       	cpi	r25, 0xFE	; 254
    35c8:	51 05       	cpc	r21, r1
    35ca:	70 f0       	brcs	.+28     	; 0x35e8 <__mulsf3_pse+0x9c>
    35cc:	60 cf       	rjmp	.-320    	; 0x348e <__fp_inf>
    35ce:	aa cf       	rjmp	.-172    	; 0x3524 <__fp_szero>
    35d0:	5f 3f       	cpi	r21, 0xFF	; 255
    35d2:	ec f3       	brlt	.-6      	; 0x35ce <__mulsf3_pse+0x82>
    35d4:	98 3e       	cpi	r25, 0xE8	; 232
    35d6:	dc f3       	brlt	.-10     	; 0x35ce <__mulsf3_pse+0x82>
    35d8:	86 95       	lsr	r24
    35da:	77 95       	ror	r23
    35dc:	67 95       	ror	r22
    35de:	b7 95       	ror	r27
    35e0:	f7 95       	ror	r31
    35e2:	e7 95       	ror	r30
    35e4:	9f 5f       	subi	r25, 0xFF	; 255
    35e6:	c1 f7       	brne	.-16     	; 0x35d8 <__mulsf3_pse+0x8c>
    35e8:	fe 2b       	or	r31, r30
    35ea:	88 0f       	add	r24, r24
    35ec:	91 1d       	adc	r25, r1
    35ee:	96 95       	lsr	r25
    35f0:	87 95       	ror	r24
    35f2:	97 f9       	bld	r25, 7
    35f4:	08 95       	ret

000035f6 <pow>:
    35f6:	fa 01       	movw	r30, r20
    35f8:	ee 0f       	add	r30, r30
    35fa:	ff 1f       	adc	r31, r31
    35fc:	30 96       	adiw	r30, 0x00	; 0
    35fe:	21 05       	cpc	r18, r1
    3600:	31 05       	cpc	r19, r1
    3602:	99 f1       	breq	.+102    	; 0x366a <pow+0x74>
    3604:	61 15       	cp	r22, r1
    3606:	71 05       	cpc	r23, r1
    3608:	61 f4       	brne	.+24     	; 0x3622 <pow+0x2c>
    360a:	80 38       	cpi	r24, 0x80	; 128
    360c:	bf e3       	ldi	r27, 0x3F	; 63
    360e:	9b 07       	cpc	r25, r27
    3610:	49 f1       	breq	.+82     	; 0x3664 <pow+0x6e>
    3612:	68 94       	set
    3614:	90 38       	cpi	r25, 0x80	; 128
    3616:	81 05       	cpc	r24, r1
    3618:	61 f0       	breq	.+24     	; 0x3632 <pow+0x3c>
    361a:	80 38       	cpi	r24, 0x80	; 128
    361c:	bf ef       	ldi	r27, 0xFF	; 255
    361e:	9b 07       	cpc	r25, r27
    3620:	41 f0       	breq	.+16     	; 0x3632 <pow+0x3c>
    3622:	99 23       	and	r25, r25
    3624:	42 f5       	brpl	.+80     	; 0x3676 <pow+0x80>
    3626:	ff 3f       	cpi	r31, 0xFF	; 255
    3628:	e1 05       	cpc	r30, r1
    362a:	31 05       	cpc	r19, r1
    362c:	21 05       	cpc	r18, r1
    362e:	11 f1       	breq	.+68     	; 0x3674 <pow+0x7e>
    3630:	e8 94       	clt
    3632:	08 94       	sec
    3634:	e7 95       	ror	r30
    3636:	d9 01       	movw	r26, r18
    3638:	aa 23       	and	r26, r26
    363a:	29 f4       	brne	.+10     	; 0x3646 <pow+0x50>
    363c:	ab 2f       	mov	r26, r27
    363e:	be 2f       	mov	r27, r30
    3640:	f8 5f       	subi	r31, 0xF8	; 248
    3642:	d0 f3       	brcs	.-12     	; 0x3638 <pow+0x42>
    3644:	10 c0       	rjmp	.+32     	; 0x3666 <pow+0x70>
    3646:	ff 5f       	subi	r31, 0xFF	; 255
    3648:	70 f4       	brcc	.+28     	; 0x3666 <pow+0x70>
    364a:	a6 95       	lsr	r26
    364c:	e0 f7       	brcc	.-8      	; 0x3646 <pow+0x50>
    364e:	f7 39       	cpi	r31, 0x97	; 151
    3650:	50 f0       	brcs	.+20     	; 0x3666 <pow+0x70>
    3652:	19 f0       	breq	.+6      	; 0x365a <pow+0x64>
    3654:	ff 3a       	cpi	r31, 0xAF	; 175
    3656:	38 f4       	brcc	.+14     	; 0x3666 <pow+0x70>
    3658:	9f 77       	andi	r25, 0x7F	; 127
    365a:	9f 93       	push	r25
    365c:	0c d0       	rcall	.+24     	; 0x3676 <pow+0x80>
    365e:	0f 90       	pop	r0
    3660:	07 fc       	sbrc	r0, 7
    3662:	90 58       	subi	r25, 0x80	; 128
    3664:	08 95       	ret
    3666:	3e f0       	brts	.+14     	; 0x3676 <pow+0x80>
    3668:	18 cf       	rjmp	.-464    	; 0x349a <__fp_nan>
    366a:	60 e0       	ldi	r22, 0x00	; 0
    366c:	70 e0       	ldi	r23, 0x00	; 0
    366e:	80 e8       	ldi	r24, 0x80	; 128
    3670:	9f e3       	ldi	r25, 0x3F	; 63
    3672:	08 95       	ret
    3674:	4f e7       	ldi	r20, 0x7F	; 127
    3676:	9f 77       	andi	r25, 0x7F	; 127
    3678:	5f 93       	push	r21
    367a:	4f 93       	push	r20
    367c:	3f 93       	push	r19
    367e:	2f 93       	push	r18
    3680:	9e d0       	rcall	.+316    	; 0x37be <log>
    3682:	2f 91       	pop	r18
    3684:	3f 91       	pop	r19
    3686:	4f 91       	pop	r20
    3688:	5f 91       	pop	r21
    368a:	52 df       	rcall	.-348    	; 0x3530 <__mulsf3>
    368c:	05 c0       	rjmp	.+10     	; 0x3698 <exp>
    368e:	19 f4       	brne	.+6      	; 0x3696 <pow+0xa0>
    3690:	0e f0       	brts	.+2      	; 0x3694 <pow+0x9e>
    3692:	fd ce       	rjmp	.-518    	; 0x348e <__fp_inf>
    3694:	46 cf       	rjmp	.-372    	; 0x3522 <__fp_zero>
    3696:	01 cf       	rjmp	.-510    	; 0x349a <__fp_nan>

00003698 <exp>:
    3698:	2a df       	rcall	.-428    	; 0x34ee <__fp_splitA>
    369a:	c8 f3       	brcs	.-14     	; 0x368e <pow+0x98>
    369c:	96 38       	cpi	r25, 0x86	; 134
    369e:	c0 f7       	brcc	.-16     	; 0x3690 <pow+0x9a>
    36a0:	07 f8       	bld	r0, 7
    36a2:	0f 92       	push	r0
    36a4:	e8 94       	clt
    36a6:	2b e3       	ldi	r18, 0x3B	; 59
    36a8:	3a ea       	ldi	r19, 0xAA	; 170
    36aa:	48 eb       	ldi	r20, 0xB8	; 184
    36ac:	5f e7       	ldi	r21, 0x7F	; 127
    36ae:	4e df       	rcall	.-356    	; 0x354c <__mulsf3_pse>
    36b0:	0f 92       	push	r0
    36b2:	0f 92       	push	r0
    36b4:	0f 92       	push	r0
    36b6:	4d b7       	in	r20, 0x3d	; 61
    36b8:	5e b7       	in	r21, 0x3e	; 62
    36ba:	0f 92       	push	r0
    36bc:	c0 d0       	rcall	.+384    	; 0x383e <modf>
    36be:	e2 e6       	ldi	r30, 0x62	; 98
    36c0:	f1 e0       	ldi	r31, 0x01	; 1
    36c2:	16 d0       	rcall	.+44     	; 0x36f0 <__fp_powser>
    36c4:	4f 91       	pop	r20
    36c6:	5f 91       	pop	r21
    36c8:	ef 91       	pop	r30
    36ca:	ff 91       	pop	r31
    36cc:	e5 95       	asr	r30
    36ce:	ee 1f       	adc	r30, r30
    36d0:	ff 1f       	adc	r31, r31
    36d2:	49 f0       	breq	.+18     	; 0x36e6 <exp+0x4e>
    36d4:	fe 57       	subi	r31, 0x7E	; 126
    36d6:	e0 68       	ori	r30, 0x80	; 128
    36d8:	44 27       	eor	r20, r20
    36da:	ee 0f       	add	r30, r30
    36dc:	44 1f       	adc	r20, r20
    36de:	fa 95       	dec	r31
    36e0:	e1 f7       	brne	.-8      	; 0x36da <exp+0x42>
    36e2:	41 95       	neg	r20
    36e4:	55 0b       	sbc	r21, r21
    36e6:	32 d0       	rcall	.+100    	; 0x374c <ldexp>
    36e8:	0f 90       	pop	r0
    36ea:	07 fe       	sbrs	r0, 7
    36ec:	26 c0       	rjmp	.+76     	; 0x373a <inverse>
    36ee:	08 95       	ret

000036f0 <__fp_powser>:
    36f0:	df 93       	push	r29
    36f2:	cf 93       	push	r28
    36f4:	1f 93       	push	r17
    36f6:	0f 93       	push	r16
    36f8:	ff 92       	push	r15
    36fa:	ef 92       	push	r14
    36fc:	df 92       	push	r13
    36fe:	7b 01       	movw	r14, r22
    3700:	8c 01       	movw	r16, r24
    3702:	68 94       	set
    3704:	05 c0       	rjmp	.+10     	; 0x3710 <__fp_powser+0x20>
    3706:	da 2e       	mov	r13, r26
    3708:	ef 01       	movw	r28, r30
    370a:	1e df       	rcall	.-452    	; 0x3548 <__mulsf3x>
    370c:	fe 01       	movw	r30, r28
    370e:	e8 94       	clt
    3710:	a5 91       	lpm	r26, Z+
    3712:	25 91       	lpm	r18, Z+
    3714:	35 91       	lpm	r19, Z+
    3716:	45 91       	lpm	r20, Z+
    3718:	55 91       	lpm	r21, Z+
    371a:	ae f3       	brts	.-22     	; 0x3706 <__fp_powser+0x16>
    371c:	ef 01       	movw	r28, r30
    371e:	f6 dd       	rcall	.-1044   	; 0x330c <__addsf3x>
    3720:	fe 01       	movw	r30, r28
    3722:	97 01       	movw	r18, r14
    3724:	a8 01       	movw	r20, r16
    3726:	da 94       	dec	r13
    3728:	79 f7       	brne	.-34     	; 0x3708 <__fp_powser+0x18>
    372a:	df 90       	pop	r13
    372c:	ef 90       	pop	r14
    372e:	ff 90       	pop	r15
    3730:	0f 91       	pop	r16
    3732:	1f 91       	pop	r17
    3734:	cf 91       	pop	r28
    3736:	df 91       	pop	r29
    3738:	08 95       	ret

0000373a <inverse>:
    373a:	9b 01       	movw	r18, r22
    373c:	ac 01       	movw	r20, r24
    373e:	60 e0       	ldi	r22, 0x00	; 0
    3740:	70 e0       	ldi	r23, 0x00	; 0
    3742:	80 e8       	ldi	r24, 0x80	; 128
    3744:	9f e3       	ldi	r25, 0x3F	; 63
    3746:	ae c0       	rjmp	.+348    	; 0x38a4 <__divsf3>
    3748:	a2 ce       	rjmp	.-700    	; 0x348e <__fp_inf>
    374a:	14 c1       	rjmp	.+552    	; 0x3974 <__fp_mpack>

0000374c <ldexp>:
    374c:	d0 de       	rcall	.-608    	; 0x34ee <__fp_splitA>
    374e:	e8 f3       	brcs	.-6      	; 0x374a <inverse+0x10>
    3750:	99 23       	and	r25, r25
    3752:	d9 f3       	breq	.-10     	; 0x374a <inverse+0x10>
    3754:	94 0f       	add	r25, r20
    3756:	51 1d       	adc	r21, r1
    3758:	bb f3       	brvs	.-18     	; 0x3748 <inverse+0xe>
    375a:	91 50       	subi	r25, 0x01	; 1
    375c:	50 40       	sbci	r21, 0x00	; 0
    375e:	94 f0       	brlt	.+36     	; 0x3784 <ldexp+0x38>
    3760:	59 f0       	breq	.+22     	; 0x3778 <ldexp+0x2c>
    3762:	88 23       	and	r24, r24
    3764:	32 f0       	brmi	.+12     	; 0x3772 <ldexp+0x26>
    3766:	66 0f       	add	r22, r22
    3768:	77 1f       	adc	r23, r23
    376a:	88 1f       	adc	r24, r24
    376c:	91 50       	subi	r25, 0x01	; 1
    376e:	50 40       	sbci	r21, 0x00	; 0
    3770:	c1 f7       	brne	.-16     	; 0x3762 <ldexp+0x16>
    3772:	9e 3f       	cpi	r25, 0xFE	; 254
    3774:	51 05       	cpc	r21, r1
    3776:	44 f7       	brge	.-48     	; 0x3748 <inverse+0xe>
    3778:	88 0f       	add	r24, r24
    377a:	91 1d       	adc	r25, r1
    377c:	96 95       	lsr	r25
    377e:	87 95       	ror	r24
    3780:	97 f9       	bld	r25, 7
    3782:	08 95       	ret
    3784:	5f 3f       	cpi	r21, 0xFF	; 255
    3786:	ac f0       	brlt	.+42     	; 0x37b2 <ldexp+0x66>
    3788:	98 3e       	cpi	r25, 0xE8	; 232
    378a:	9c f0       	brlt	.+38     	; 0x37b2 <ldexp+0x66>
    378c:	bb 27       	eor	r27, r27
    378e:	86 95       	lsr	r24
    3790:	77 95       	ror	r23
    3792:	67 95       	ror	r22
    3794:	b7 95       	ror	r27
    3796:	08 f4       	brcc	.+2      	; 0x379a <ldexp+0x4e>
    3798:	b1 60       	ori	r27, 0x01	; 1
    379a:	93 95       	inc	r25
    379c:	c1 f7       	brne	.-16     	; 0x378e <ldexp+0x42>
    379e:	bb 0f       	add	r27, r27
    37a0:	58 f7       	brcc	.-42     	; 0x3778 <ldexp+0x2c>
    37a2:	11 f4       	brne	.+4      	; 0x37a8 <ldexp+0x5c>
    37a4:	60 ff       	sbrs	r22, 0
    37a6:	e8 cf       	rjmp	.-48     	; 0x3778 <ldexp+0x2c>
    37a8:	6f 5f       	subi	r22, 0xFF	; 255
    37aa:	7f 4f       	sbci	r23, 0xFF	; 255
    37ac:	8f 4f       	sbci	r24, 0xFF	; 255
    37ae:	9f 4f       	sbci	r25, 0xFF	; 255
    37b0:	e3 cf       	rjmp	.-58     	; 0x3778 <ldexp+0x2c>
    37b2:	b8 ce       	rjmp	.-656    	; 0x3524 <__fp_szero>
    37b4:	0e f0       	brts	.+2      	; 0x37b8 <ldexp+0x6c>
    37b6:	de c0       	rjmp	.+444    	; 0x3974 <__fp_mpack>
    37b8:	70 ce       	rjmp	.-800    	; 0x349a <__fp_nan>
    37ba:	68 94       	set
    37bc:	68 ce       	rjmp	.-816    	; 0x348e <__fp_inf>

000037be <log>:
    37be:	97 de       	rcall	.-722    	; 0x34ee <__fp_splitA>
    37c0:	c8 f3       	brcs	.-14     	; 0x37b4 <ldexp+0x68>
    37c2:	99 23       	and	r25, r25
    37c4:	d1 f3       	breq	.-12     	; 0x37ba <ldexp+0x6e>
    37c6:	c6 f3       	brts	.-16     	; 0x37b8 <ldexp+0x6c>
    37c8:	df 93       	push	r29
    37ca:	cf 93       	push	r28
    37cc:	1f 93       	push	r17
    37ce:	0f 93       	push	r16
    37d0:	ff 92       	push	r15
    37d2:	c9 2f       	mov	r28, r25
    37d4:	dd 27       	eor	r29, r29
    37d6:	88 23       	and	r24, r24
    37d8:	2a f0       	brmi	.+10     	; 0x37e4 <log+0x26>
    37da:	21 97       	sbiw	r28, 0x01	; 1
    37dc:	66 0f       	add	r22, r22
    37de:	77 1f       	adc	r23, r23
    37e0:	88 1f       	adc	r24, r24
    37e2:	da f7       	brpl	.-10     	; 0x37da <log+0x1c>
    37e4:	20 e0       	ldi	r18, 0x00	; 0
    37e6:	30 e0       	ldi	r19, 0x00	; 0
    37e8:	40 e8       	ldi	r20, 0x80	; 128
    37ea:	5f eb       	ldi	r21, 0xBF	; 191
    37ec:	9f e3       	ldi	r25, 0x3F	; 63
    37ee:	88 39       	cpi	r24, 0x98	; 152
    37f0:	20 f0       	brcs	.+8      	; 0x37fa <log+0x3c>
    37f2:	80 3e       	cpi	r24, 0xE0	; 224
    37f4:	30 f0       	brcs	.+12     	; 0x3802 <log+0x44>
    37f6:	21 96       	adiw	r28, 0x01	; 1
    37f8:	8f 77       	andi	r24, 0x7F	; 127
    37fa:	77 dd       	rcall	.-1298   	; 0x32ea <__addsf3>
    37fc:	ea e8       	ldi	r30, 0x8A	; 138
    37fe:	f1 e0       	ldi	r31, 0x01	; 1
    3800:	03 c0       	rjmp	.+6      	; 0x3808 <log+0x4a>
    3802:	73 dd       	rcall	.-1306   	; 0x32ea <__addsf3>
    3804:	e7 eb       	ldi	r30, 0xB7	; 183
    3806:	f1 e0       	ldi	r31, 0x01	; 1
    3808:	73 df       	rcall	.-282    	; 0x36f0 <__fp_powser>
    380a:	8b 01       	movw	r16, r22
    380c:	be 01       	movw	r22, r28
    380e:	ec 01       	movw	r28, r24
    3810:	fb 2e       	mov	r15, r27
    3812:	6f 57       	subi	r22, 0x7F	; 127
    3814:	71 09       	sbc	r23, r1
    3816:	75 95       	asr	r23
    3818:	77 1f       	adc	r23, r23
    381a:	88 0b       	sbc	r24, r24
    381c:	99 0b       	sbc	r25, r25
    381e:	fc dd       	rcall	.-1032   	; 0x3418 <__floatsisf>
    3820:	28 e1       	ldi	r18, 0x18	; 24
    3822:	32 e7       	ldi	r19, 0x72	; 114
    3824:	41 e3       	ldi	r20, 0x31	; 49
    3826:	5f e3       	ldi	r21, 0x3F	; 63
    3828:	8f de       	rcall	.-738    	; 0x3548 <__mulsf3x>
    382a:	af 2d       	mov	r26, r15
    382c:	98 01       	movw	r18, r16
    382e:	ae 01       	movw	r20, r28
    3830:	ff 90       	pop	r15
    3832:	0f 91       	pop	r16
    3834:	1f 91       	pop	r17
    3836:	cf 91       	pop	r28
    3838:	df 91       	pop	r29
    383a:	68 dd       	rcall	.-1328   	; 0x330c <__addsf3x>
    383c:	3f ce       	rjmp	.-898    	; 0x34bc <__fp_round>

0000383e <modf>:
    383e:	fa 01       	movw	r30, r20
    3840:	dc 01       	movw	r26, r24
    3842:	aa 0f       	add	r26, r26
    3844:	bb 1f       	adc	r27, r27
    3846:	9b 01       	movw	r18, r22
    3848:	ac 01       	movw	r20, r24
    384a:	bf 57       	subi	r27, 0x7F	; 127
    384c:	28 f4       	brcc	.+10     	; 0x3858 <modf+0x1a>
    384e:	22 27       	eor	r18, r18
    3850:	33 27       	eor	r19, r19
    3852:	44 27       	eor	r20, r20
    3854:	50 78       	andi	r21, 0x80	; 128
    3856:	1f c0       	rjmp	.+62     	; 0x3896 <modf+0x58>
    3858:	b7 51       	subi	r27, 0x17	; 23
    385a:	88 f4       	brcc	.+34     	; 0x387e <modf+0x40>
    385c:	ab 2f       	mov	r26, r27
    385e:	00 24       	eor	r0, r0
    3860:	46 95       	lsr	r20
    3862:	37 95       	ror	r19
    3864:	27 95       	ror	r18
    3866:	01 1c       	adc	r0, r1
    3868:	a3 95       	inc	r26
    386a:	d2 f3       	brmi	.-12     	; 0x3860 <modf+0x22>
    386c:	00 20       	and	r0, r0
    386e:	69 f0       	breq	.+26     	; 0x388a <modf+0x4c>
    3870:	22 0f       	add	r18, r18
    3872:	33 1f       	adc	r19, r19
    3874:	44 1f       	adc	r20, r20
    3876:	b3 95       	inc	r27
    3878:	da f3       	brmi	.-10     	; 0x3870 <modf+0x32>
    387a:	0d d0       	rcall	.+26     	; 0x3896 <modf+0x58>
    387c:	35 cd       	rjmp	.-1430   	; 0x32e8 <__subsf3>
    387e:	61 30       	cpi	r22, 0x01	; 1
    3880:	71 05       	cpc	r23, r1
    3882:	a0 e8       	ldi	r26, 0x80	; 128
    3884:	8a 07       	cpc	r24, r26
    3886:	b9 46       	sbci	r27, 0x69	; 105
    3888:	30 f4       	brcc	.+12     	; 0x3896 <modf+0x58>
    388a:	9b 01       	movw	r18, r22
    388c:	ac 01       	movw	r20, r24
    388e:	66 27       	eor	r22, r22
    3890:	77 27       	eor	r23, r23
    3892:	88 27       	eor	r24, r24
    3894:	90 78       	andi	r25, 0x80	; 128
    3896:	30 96       	adiw	r30, 0x00	; 0
    3898:	21 f0       	breq	.+8      	; 0x38a2 <modf+0x64>
    389a:	20 83       	st	Z, r18
    389c:	31 83       	std	Z+1, r19	; 0x01
    389e:	42 83       	std	Z+2, r20	; 0x02
    38a0:	53 83       	std	Z+3, r21	; 0x03
    38a2:	08 95       	ret

000038a4 <__divsf3>:
    38a4:	0c d0       	rcall	.+24     	; 0x38be <__divsf3x>
    38a6:	0a ce       	rjmp	.-1004   	; 0x34bc <__fp_round>
    38a8:	02 de       	rcall	.-1020   	; 0x34ae <__fp_pscB>
    38aa:	40 f0       	brcs	.+16     	; 0x38bc <__divsf3+0x18>
    38ac:	f9 dd       	rcall	.-1038   	; 0x34a0 <__fp_pscA>
    38ae:	30 f0       	brcs	.+12     	; 0x38bc <__divsf3+0x18>
    38b0:	21 f4       	brne	.+8      	; 0x38ba <__divsf3+0x16>
    38b2:	5f 3f       	cpi	r21, 0xFF	; 255
    38b4:	19 f0       	breq	.+6      	; 0x38bc <__divsf3+0x18>
    38b6:	eb cd       	rjmp	.-1066   	; 0x348e <__fp_inf>
    38b8:	51 11       	cpse	r21, r1
    38ba:	34 ce       	rjmp	.-920    	; 0x3524 <__fp_szero>
    38bc:	ee cd       	rjmp	.-1060   	; 0x349a <__fp_nan>

000038be <__divsf3x>:
    38be:	0f de       	rcall	.-994    	; 0x34de <__fp_split3>
    38c0:	98 f3       	brcs	.-26     	; 0x38a8 <__divsf3+0x4>

000038c2 <__divsf3_pse>:
    38c2:	99 23       	and	r25, r25
    38c4:	c9 f3       	breq	.-14     	; 0x38b8 <__divsf3+0x14>
    38c6:	55 23       	and	r21, r21
    38c8:	b1 f3       	breq	.-20     	; 0x38b6 <__divsf3+0x12>
    38ca:	95 1b       	sub	r25, r21
    38cc:	55 0b       	sbc	r21, r21
    38ce:	bb 27       	eor	r27, r27
    38d0:	aa 27       	eor	r26, r26
    38d2:	62 17       	cp	r22, r18
    38d4:	73 07       	cpc	r23, r19
    38d6:	84 07       	cpc	r24, r20
    38d8:	38 f0       	brcs	.+14     	; 0x38e8 <__divsf3_pse+0x26>
    38da:	9f 5f       	subi	r25, 0xFF	; 255
    38dc:	5f 4f       	sbci	r21, 0xFF	; 255
    38de:	22 0f       	add	r18, r18
    38e0:	33 1f       	adc	r19, r19
    38e2:	44 1f       	adc	r20, r20
    38e4:	aa 1f       	adc	r26, r26
    38e6:	a9 f3       	breq	.-22     	; 0x38d2 <__divsf3_pse+0x10>
    38e8:	33 d0       	rcall	.+102    	; 0x3950 <__divsf3_pse+0x8e>
    38ea:	0e 2e       	mov	r0, r30
    38ec:	3a f0       	brmi	.+14     	; 0x38fc <__divsf3_pse+0x3a>
    38ee:	e0 e8       	ldi	r30, 0x80	; 128
    38f0:	30 d0       	rcall	.+96     	; 0x3952 <__divsf3_pse+0x90>
    38f2:	91 50       	subi	r25, 0x01	; 1
    38f4:	50 40       	sbci	r21, 0x00	; 0
    38f6:	e6 95       	lsr	r30
    38f8:	00 1c       	adc	r0, r0
    38fa:	ca f7       	brpl	.-14     	; 0x38ee <__divsf3_pse+0x2c>
    38fc:	29 d0       	rcall	.+82     	; 0x3950 <__divsf3_pse+0x8e>
    38fe:	fe 2f       	mov	r31, r30
    3900:	27 d0       	rcall	.+78     	; 0x3950 <__divsf3_pse+0x8e>
    3902:	66 0f       	add	r22, r22
    3904:	77 1f       	adc	r23, r23
    3906:	88 1f       	adc	r24, r24
    3908:	bb 1f       	adc	r27, r27
    390a:	26 17       	cp	r18, r22
    390c:	37 07       	cpc	r19, r23
    390e:	48 07       	cpc	r20, r24
    3910:	ab 07       	cpc	r26, r27
    3912:	b0 e8       	ldi	r27, 0x80	; 128
    3914:	09 f0       	breq	.+2      	; 0x3918 <__divsf3_pse+0x56>
    3916:	bb 0b       	sbc	r27, r27
    3918:	80 2d       	mov	r24, r0
    391a:	bf 01       	movw	r22, r30
    391c:	ff 27       	eor	r31, r31
    391e:	93 58       	subi	r25, 0x83	; 131
    3920:	5f 4f       	sbci	r21, 0xFF	; 255
    3922:	2a f0       	brmi	.+10     	; 0x392e <__divsf3_pse+0x6c>
    3924:	9e 3f       	cpi	r25, 0xFE	; 254
    3926:	51 05       	cpc	r21, r1
    3928:	68 f0       	brcs	.+26     	; 0x3944 <__divsf3_pse+0x82>
    392a:	b1 cd       	rjmp	.-1182   	; 0x348e <__fp_inf>
    392c:	fb cd       	rjmp	.-1034   	; 0x3524 <__fp_szero>
    392e:	5f 3f       	cpi	r21, 0xFF	; 255
    3930:	ec f3       	brlt	.-6      	; 0x392c <__divsf3_pse+0x6a>
    3932:	98 3e       	cpi	r25, 0xE8	; 232
    3934:	dc f3       	brlt	.-10     	; 0x392c <__divsf3_pse+0x6a>
    3936:	86 95       	lsr	r24
    3938:	77 95       	ror	r23
    393a:	67 95       	ror	r22
    393c:	b7 95       	ror	r27
    393e:	f7 95       	ror	r31
    3940:	9f 5f       	subi	r25, 0xFF	; 255
    3942:	c9 f7       	brne	.-14     	; 0x3936 <__divsf3_pse+0x74>
    3944:	88 0f       	add	r24, r24
    3946:	91 1d       	adc	r25, r1
    3948:	96 95       	lsr	r25
    394a:	87 95       	ror	r24
    394c:	97 f9       	bld	r25, 7
    394e:	08 95       	ret
    3950:	e1 e0       	ldi	r30, 0x01	; 1
    3952:	66 0f       	add	r22, r22
    3954:	77 1f       	adc	r23, r23
    3956:	88 1f       	adc	r24, r24
    3958:	bb 1f       	adc	r27, r27
    395a:	62 17       	cp	r22, r18
    395c:	73 07       	cpc	r23, r19
    395e:	84 07       	cpc	r24, r20
    3960:	ba 07       	cpc	r27, r26
    3962:	20 f0       	brcs	.+8      	; 0x396c <__divsf3_pse+0xaa>
    3964:	62 1b       	sub	r22, r18
    3966:	73 0b       	sbc	r23, r19
    3968:	84 0b       	sbc	r24, r20
    396a:	ba 0b       	sbc	r27, r26
    396c:	ee 1f       	adc	r30, r30
    396e:	88 f7       	brcc	.-30     	; 0x3952 <__divsf3_pse+0x90>
    3970:	e0 95       	com	r30
    3972:	08 95       	ret

00003974 <__fp_mpack>:
    3974:	9f 3f       	cpi	r25, 0xFF	; 255
    3976:	31 f0       	breq	.+12     	; 0x3984 <__fp_mpack_finite+0xc>

00003978 <__fp_mpack_finite>:
    3978:	91 50       	subi	r25, 0x01	; 1
    397a:	20 f4       	brcc	.+8      	; 0x3984 <__fp_mpack_finite+0xc>
    397c:	87 95       	ror	r24
    397e:	77 95       	ror	r23
    3980:	67 95       	ror	r22
    3982:	b7 95       	ror	r27
    3984:	88 0f       	add	r24, r24
    3986:	91 1d       	adc	r25, r1
    3988:	96 95       	lsr	r25
    398a:	87 95       	ror	r24
    398c:	97 f9       	bld	r25, 7
    398e:	08 95       	ret

00003990 <__mulsi3>:
    3990:	db 01       	movw	r26, r22
    3992:	8f 93       	push	r24
    3994:	9f 93       	push	r25
    3996:	49 d0       	rcall	.+146    	; 0x3a2a <__muluhisi3>
    3998:	bf 91       	pop	r27
    399a:	af 91       	pop	r26
    399c:	a2 9f       	mul	r26, r18
    399e:	80 0d       	add	r24, r0
    39a0:	91 1d       	adc	r25, r1
    39a2:	a3 9f       	mul	r26, r19
    39a4:	90 0d       	add	r25, r0
    39a6:	b2 9f       	mul	r27, r18
    39a8:	90 0d       	add	r25, r0
    39aa:	11 24       	eor	r1, r1
    39ac:	08 95       	ret

000039ae <__udivmodhi4>:
    39ae:	aa 1b       	sub	r26, r26
    39b0:	bb 1b       	sub	r27, r27
    39b2:	51 e1       	ldi	r21, 0x11	; 17
    39b4:	07 c0       	rjmp	.+14     	; 0x39c4 <__udivmodhi4_ep>

000039b6 <__udivmodhi4_loop>:
    39b6:	aa 1f       	adc	r26, r26
    39b8:	bb 1f       	adc	r27, r27
    39ba:	a6 17       	cp	r26, r22
    39bc:	b7 07       	cpc	r27, r23
    39be:	10 f0       	brcs	.+4      	; 0x39c4 <__udivmodhi4_ep>
    39c0:	a6 1b       	sub	r26, r22
    39c2:	b7 0b       	sbc	r27, r23

000039c4 <__udivmodhi4_ep>:
    39c4:	88 1f       	adc	r24, r24
    39c6:	99 1f       	adc	r25, r25
    39c8:	5a 95       	dec	r21
    39ca:	a9 f7       	brne	.-22     	; 0x39b6 <__udivmodhi4_loop>
    39cc:	80 95       	com	r24
    39ce:	90 95       	com	r25
    39d0:	bc 01       	movw	r22, r24
    39d2:	cd 01       	movw	r24, r26
    39d4:	08 95       	ret

000039d6 <__divmodhi4>:
    39d6:	97 fb       	bst	r25, 7
    39d8:	07 2e       	mov	r0, r23
    39da:	16 f4       	brtc	.+4      	; 0x39e0 <__divmodhi4+0xa>
    39dc:	00 94       	com	r0
    39de:	06 d0       	rcall	.+12     	; 0x39ec <__divmodhi4_neg1>
    39e0:	77 fd       	sbrc	r23, 7
    39e2:	08 d0       	rcall	.+16     	; 0x39f4 <__divmodhi4_neg2>
    39e4:	e4 df       	rcall	.-56     	; 0x39ae <__udivmodhi4>
    39e6:	07 fc       	sbrc	r0, 7
    39e8:	05 d0       	rcall	.+10     	; 0x39f4 <__divmodhi4_neg2>
    39ea:	3e f4       	brtc	.+14     	; 0x39fa <__divmodhi4_exit>

000039ec <__divmodhi4_neg1>:
    39ec:	90 95       	com	r25
    39ee:	81 95       	neg	r24
    39f0:	9f 4f       	sbci	r25, 0xFF	; 255
    39f2:	08 95       	ret

000039f4 <__divmodhi4_neg2>:
    39f4:	70 95       	com	r23
    39f6:	61 95       	neg	r22
    39f8:	7f 4f       	sbci	r23, 0xFF	; 255

000039fa <__divmodhi4_exit>:
    39fa:	08 95       	ret

000039fc <__tablejump2__>:
    39fc:	ee 0f       	add	r30, r30
    39fe:	ff 1f       	adc	r31, r31
    3a00:	88 1f       	adc	r24, r24
    3a02:	8b bf       	out	0x3b, r24	; 59
    3a04:	07 90       	elpm	r0, Z+
    3a06:	f6 91       	elpm	r31, Z
    3a08:	e0 2d       	mov	r30, r0
    3a0a:	19 94       	eijmp

00003a0c <__umulhisi3>:
    3a0c:	a2 9f       	mul	r26, r18
    3a0e:	b0 01       	movw	r22, r0
    3a10:	b3 9f       	mul	r27, r19
    3a12:	c0 01       	movw	r24, r0
    3a14:	a3 9f       	mul	r26, r19
    3a16:	70 0d       	add	r23, r0
    3a18:	81 1d       	adc	r24, r1
    3a1a:	11 24       	eor	r1, r1
    3a1c:	91 1d       	adc	r25, r1
    3a1e:	b2 9f       	mul	r27, r18
    3a20:	70 0d       	add	r23, r0
    3a22:	81 1d       	adc	r24, r1
    3a24:	11 24       	eor	r1, r1
    3a26:	91 1d       	adc	r25, r1
    3a28:	08 95       	ret

00003a2a <__muluhisi3>:
    3a2a:	f0 df       	rcall	.-32     	; 0x3a0c <__umulhisi3>
    3a2c:	a5 9f       	mul	r26, r21
    3a2e:	90 0d       	add	r25, r0
    3a30:	b4 9f       	mul	r27, r20
    3a32:	90 0d       	add	r25, r0
    3a34:	a4 9f       	mul	r26, r20
    3a36:	80 0d       	add	r24, r0
    3a38:	91 1d       	adc	r25, r1
    3a3a:	11 24       	eor	r1, r1
    3a3c:	08 95       	ret

00003a3e <__mulshisi3>:
    3a3e:	b7 ff       	sbrs	r27, 7
    3a40:	f4 cf       	rjmp	.-24     	; 0x3a2a <__muluhisi3>

00003a42 <__mulohisi3>:
    3a42:	f3 df       	rcall	.-26     	; 0x3a2a <__muluhisi3>
    3a44:	82 1b       	sub	r24, r18
    3a46:	93 0b       	sbc	r25, r19
    3a48:	08 95       	ret

00003a4a <__adddi3_s8>:
    3a4a:	00 24       	eor	r0, r0
    3a4c:	a7 fd       	sbrc	r26, 7
    3a4e:	00 94       	com	r0
    3a50:	2a 0f       	add	r18, r26
    3a52:	30 1d       	adc	r19, r0
    3a54:	40 1d       	adc	r20, r0
    3a56:	50 1d       	adc	r21, r0
    3a58:	60 1d       	adc	r22, r0
    3a5a:	70 1d       	adc	r23, r0
    3a5c:	80 1d       	adc	r24, r0
    3a5e:	90 1d       	adc	r25, r0
    3a60:	08 95       	ret

00003a62 <__cmpdi2_s8>:
    3a62:	00 24       	eor	r0, r0
    3a64:	a7 fd       	sbrc	r26, 7
    3a66:	00 94       	com	r0
    3a68:	2a 17       	cp	r18, r26
    3a6a:	30 05       	cpc	r19, r0
    3a6c:	40 05       	cpc	r20, r0
    3a6e:	50 05       	cpc	r21, r0
    3a70:	60 05       	cpc	r22, r0
    3a72:	70 05       	cpc	r23, r0
    3a74:	80 05       	cpc	r24, r0
    3a76:	90 05       	cpc	r25, r0
    3a78:	08 95       	ret

00003a7a <do_rand>:
    3a7a:	8f 92       	push	r8
    3a7c:	9f 92       	push	r9
    3a7e:	af 92       	push	r10
    3a80:	bf 92       	push	r11
    3a82:	cf 92       	push	r12
    3a84:	df 92       	push	r13
    3a86:	ef 92       	push	r14
    3a88:	ff 92       	push	r15
    3a8a:	cf 93       	push	r28
    3a8c:	df 93       	push	r29
    3a8e:	ec 01       	movw	r28, r24
    3a90:	68 81       	ld	r22, Y
    3a92:	79 81       	ldd	r23, Y+1	; 0x01
    3a94:	8a 81       	ldd	r24, Y+2	; 0x02
    3a96:	9b 81       	ldd	r25, Y+3	; 0x03
    3a98:	61 15       	cp	r22, r1
    3a9a:	71 05       	cpc	r23, r1
    3a9c:	81 05       	cpc	r24, r1
    3a9e:	91 05       	cpc	r25, r1
    3aa0:	21 f4       	brne	.+8      	; 0x3aaa <do_rand+0x30>
    3aa2:	64 e2       	ldi	r22, 0x24	; 36
    3aa4:	79 ed       	ldi	r23, 0xD9	; 217
    3aa6:	8b e5       	ldi	r24, 0x5B	; 91
    3aa8:	97 e0       	ldi	r25, 0x07	; 7
    3aaa:	2d e1       	ldi	r18, 0x1D	; 29
    3aac:	33 ef       	ldi	r19, 0xF3	; 243
    3aae:	41 e0       	ldi	r20, 0x01	; 1
    3ab0:	50 e0       	ldi	r21, 0x00	; 0
    3ab2:	41 d0       	rcall	.+130    	; 0x3b36 <__divmodsi4>
    3ab4:	49 01       	movw	r8, r18
    3ab6:	5a 01       	movw	r10, r20
    3ab8:	9b 01       	movw	r18, r22
    3aba:	ac 01       	movw	r20, r24
    3abc:	a7 ea       	ldi	r26, 0xA7	; 167
    3abe:	b1 e4       	ldi	r27, 0x41	; 65
    3ac0:	b4 df       	rcall	.-152    	; 0x3a2a <__muluhisi3>
    3ac2:	6b 01       	movw	r12, r22
    3ac4:	7c 01       	movw	r14, r24
    3ac6:	ac ee       	ldi	r26, 0xEC	; 236
    3ac8:	b4 ef       	ldi	r27, 0xF4	; 244
    3aca:	a5 01       	movw	r20, r10
    3acc:	94 01       	movw	r18, r8
    3ace:	b9 df       	rcall	.-142    	; 0x3a42 <__mulohisi3>
    3ad0:	dc 01       	movw	r26, r24
    3ad2:	cb 01       	movw	r24, r22
    3ad4:	8c 0d       	add	r24, r12
    3ad6:	9d 1d       	adc	r25, r13
    3ad8:	ae 1d       	adc	r26, r14
    3ada:	bf 1d       	adc	r27, r15
    3adc:	b7 ff       	sbrs	r27, 7
    3ade:	03 c0       	rjmp	.+6      	; 0x3ae6 <do_rand+0x6c>
    3ae0:	01 97       	sbiw	r24, 0x01	; 1
    3ae2:	a1 09       	sbc	r26, r1
    3ae4:	b0 48       	sbci	r27, 0x80	; 128
    3ae6:	88 83       	st	Y, r24
    3ae8:	99 83       	std	Y+1, r25	; 0x01
    3aea:	aa 83       	std	Y+2, r26	; 0x02
    3aec:	bb 83       	std	Y+3, r27	; 0x03
    3aee:	9f 77       	andi	r25, 0x7F	; 127
    3af0:	df 91       	pop	r29
    3af2:	cf 91       	pop	r28
    3af4:	ff 90       	pop	r15
    3af6:	ef 90       	pop	r14
    3af8:	df 90       	pop	r13
    3afa:	cf 90       	pop	r12
    3afc:	bf 90       	pop	r11
    3afe:	af 90       	pop	r10
    3b00:	9f 90       	pop	r9
    3b02:	8f 90       	pop	r8
    3b04:	08 95       	ret

00003b06 <rand_r>:
    3b06:	b9 cf       	rjmp	.-142    	; 0x3a7a <do_rand>

00003b08 <rand>:
    3b08:	80 e0       	ldi	r24, 0x00	; 0
    3b0a:	92 e0       	ldi	r25, 0x02	; 2
    3b0c:	b6 cf       	rjmp	.-148    	; 0x3a7a <do_rand>

00003b0e <srand>:
    3b0e:	a0 e0       	ldi	r26, 0x00	; 0
    3b10:	b0 e0       	ldi	r27, 0x00	; 0
    3b12:	80 93 00 02 	sts	0x0200, r24	; 0x800200 <__DATA_REGION_ORIGIN__>
    3b16:	90 93 01 02 	sts	0x0201, r25	; 0x800201 <__DATA_REGION_ORIGIN__+0x1>
    3b1a:	a0 93 02 02 	sts	0x0202, r26	; 0x800202 <__DATA_REGION_ORIGIN__+0x2>
    3b1e:	b0 93 03 02 	sts	0x0203, r27	; 0x800203 <__DATA_REGION_ORIGIN__+0x3>
    3b22:	08 95       	ret

00003b24 <memcpy>:
    3b24:	fb 01       	movw	r30, r22
    3b26:	dc 01       	movw	r26, r24
    3b28:	02 c0       	rjmp	.+4      	; 0x3b2e <memcpy+0xa>
    3b2a:	01 90       	ld	r0, Z+
    3b2c:	0d 92       	st	X+, r0
    3b2e:	41 50       	subi	r20, 0x01	; 1
    3b30:	50 40       	sbci	r21, 0x00	; 0
    3b32:	d8 f7       	brcc	.-10     	; 0x3b2a <memcpy+0x6>
    3b34:	08 95       	ret

00003b36 <__divmodsi4>:
    3b36:	05 2e       	mov	r0, r21
    3b38:	97 fb       	bst	r25, 7
    3b3a:	16 f4       	brtc	.+4      	; 0x3b40 <__divmodsi4+0xa>
    3b3c:	00 94       	com	r0
    3b3e:	0f d0       	rcall	.+30     	; 0x3b5e <__negsi2>
    3b40:	57 fd       	sbrc	r21, 7
    3b42:	05 d0       	rcall	.+10     	; 0x3b4e <__divmodsi4_neg2>
    3b44:	14 d0       	rcall	.+40     	; 0x3b6e <__udivmodsi4>
    3b46:	07 fc       	sbrc	r0, 7
    3b48:	02 d0       	rcall	.+4      	; 0x3b4e <__divmodsi4_neg2>
    3b4a:	46 f4       	brtc	.+16     	; 0x3b5c <__divmodsi4_exit>
    3b4c:	08 c0       	rjmp	.+16     	; 0x3b5e <__negsi2>

00003b4e <__divmodsi4_neg2>:
    3b4e:	50 95       	com	r21
    3b50:	40 95       	com	r20
    3b52:	30 95       	com	r19
    3b54:	21 95       	neg	r18
    3b56:	3f 4f       	sbci	r19, 0xFF	; 255
    3b58:	4f 4f       	sbci	r20, 0xFF	; 255
    3b5a:	5f 4f       	sbci	r21, 0xFF	; 255

00003b5c <__divmodsi4_exit>:
    3b5c:	08 95       	ret

00003b5e <__negsi2>:
    3b5e:	90 95       	com	r25
    3b60:	80 95       	com	r24
    3b62:	70 95       	com	r23
    3b64:	61 95       	neg	r22
    3b66:	7f 4f       	sbci	r23, 0xFF	; 255
    3b68:	8f 4f       	sbci	r24, 0xFF	; 255
    3b6a:	9f 4f       	sbci	r25, 0xFF	; 255
    3b6c:	08 95       	ret

00003b6e <__udivmodsi4>:
    3b6e:	a1 e2       	ldi	r26, 0x21	; 33
    3b70:	1a 2e       	mov	r1, r26
    3b72:	aa 1b       	sub	r26, r26
    3b74:	bb 1b       	sub	r27, r27
    3b76:	fd 01       	movw	r30, r26
    3b78:	0d c0       	rjmp	.+26     	; 0x3b94 <__udivmodsi4_ep>

00003b7a <__udivmodsi4_loop>:
    3b7a:	aa 1f       	adc	r26, r26
    3b7c:	bb 1f       	adc	r27, r27
    3b7e:	ee 1f       	adc	r30, r30
    3b80:	ff 1f       	adc	r31, r31
    3b82:	a2 17       	cp	r26, r18
    3b84:	b3 07       	cpc	r27, r19
    3b86:	e4 07       	cpc	r30, r20
    3b88:	f5 07       	cpc	r31, r21
    3b8a:	20 f0       	brcs	.+8      	; 0x3b94 <__udivmodsi4_ep>
    3b8c:	a2 1b       	sub	r26, r18
    3b8e:	b3 0b       	sbc	r27, r19
    3b90:	e4 0b       	sbc	r30, r20
    3b92:	f5 0b       	sbc	r31, r21

00003b94 <__udivmodsi4_ep>:
    3b94:	66 1f       	adc	r22, r22
    3b96:	77 1f       	adc	r23, r23
    3b98:	88 1f       	adc	r24, r24
    3b9a:	99 1f       	adc	r25, r25
    3b9c:	1a 94       	dec	r1
    3b9e:	69 f7       	brne	.-38     	; 0x3b7a <__udivmodsi4_loop>
    3ba0:	60 95       	com	r22
    3ba2:	70 95       	com	r23
    3ba4:	80 95       	com	r24
    3ba6:	90 95       	com	r25
    3ba8:	9b 01       	movw	r18, r22
    3baa:	ac 01       	movw	r20, r24
    3bac:	bd 01       	movw	r22, r26
    3bae:	cf 01       	movw	r24, r30
    3bb0:	08 95       	ret

00003bb2 <_exit>:
    3bb2:	f8 94       	cli

00003bb4 <__stop_program>:
    3bb4:	ff cf       	rjmp	.-2      	; 0x3bb4 <__stop_program>
